
Optocoupler sensor.elf:     file format elf32-avr

Sections:
Idx Name          Size      VMA       LMA       File off  Algn
  0 .data         00000066  00800100  0000138c  00001420  2**0
                  CONTENTS, ALLOC, LOAD, DATA
  1 .text         0000138c  00000000  00000000  00000094  2**1
                  CONTENTS, ALLOC, LOAD, READONLY, CODE
  2 .bss          0000002d  00800166  00800166  00001486  2**0
                  ALLOC
  3 .comment      0000005c  00000000  00000000  00001486  2**0
                  CONTENTS, READONLY
  4 .note.gnu.avr.deviceinfo 00000040  00000000  00000000  000014e4  2**2
                  CONTENTS, READONLY
  5 .debug_aranges 00000098  00000000  00000000  00001524  2**0
                  CONTENTS, READONLY, DEBUGGING
  6 .debug_info   00000b31  00000000  00000000  000015bc  2**0
                  CONTENTS, READONLY, DEBUGGING
  7 .debug_abbrev 00000848  00000000  00000000  000020ed  2**0
                  CONTENTS, READONLY, DEBUGGING
  8 .debug_line   000004fd  00000000  00000000  00002935  2**0
                  CONTENTS, READONLY, DEBUGGING
  9 .debug_frame  000001a8  00000000  00000000  00002e34  2**2
                  CONTENTS, READONLY, DEBUGGING
 10 .debug_str    00000568  00000000  00000000  00002fdc  2**0
                  CONTENTS, READONLY, DEBUGGING
 11 .debug_loc    000002b8  00000000  00000000  00003544  2**0
                  CONTENTS, READONLY, DEBUGGING
 12 .debug_ranges 00000078  00000000  00000000  000037fc  2**0
                  CONTENTS, READONLY, DEBUGGING

Disassembly of section .text:

00000000 <__vectors>:
       0:	0c 94 b5 00 	jmp	0x16a	; 0x16a <__ctors_end>
       4:	0c 94 d2 00 	jmp	0x1a4	; 0x1a4 <__bad_interrupt>
       8:	0c 94 d2 00 	jmp	0x1a4	; 0x1a4 <__bad_interrupt>
       c:	0c 94 d2 00 	jmp	0x1a4	; 0x1a4 <__bad_interrupt>
      10:	0c 94 e4 01 	jmp	0x3c8	; 0x3c8 <__vector_4>
      14:	0c 94 d2 00 	jmp	0x1a4	; 0x1a4 <__bad_interrupt>
      18:	0c 94 d2 00 	jmp	0x1a4	; 0x1a4 <__bad_interrupt>
      1c:	0c 94 d2 00 	jmp	0x1a4	; 0x1a4 <__bad_interrupt>
      20:	0c 94 d2 00 	jmp	0x1a4	; 0x1a4 <__bad_interrupt>
      24:	0c 94 d2 00 	jmp	0x1a4	; 0x1a4 <__bad_interrupt>
      28:	0c 94 d2 00 	jmp	0x1a4	; 0x1a4 <__bad_interrupt>
      2c:	0c 94 d2 00 	jmp	0x1a4	; 0x1a4 <__bad_interrupt>
      30:	0c 94 d2 00 	jmp	0x1a4	; 0x1a4 <__bad_interrupt>
      34:	0c 94 d2 00 	jmp	0x1a4	; 0x1a4 <__bad_interrupt>
      38:	0c 94 21 02 	jmp	0x442	; 0x442 <__vector_14>
      3c:	0c 94 d2 00 	jmp	0x1a4	; 0x1a4 <__bad_interrupt>
      40:	0c 94 d2 00 	jmp	0x1a4	; 0x1a4 <__bad_interrupt>
      44:	0c 94 d2 00 	jmp	0x1a4	; 0x1a4 <__bad_interrupt>
      48:	0c 94 d2 00 	jmp	0x1a4	; 0x1a4 <__bad_interrupt>
      4c:	0c 94 d2 00 	jmp	0x1a4	; 0x1a4 <__bad_interrupt>
      50:	0c 94 d2 00 	jmp	0x1a4	; 0x1a4 <__bad_interrupt>
      54:	0c 94 d2 00 	jmp	0x1a4	; 0x1a4 <__bad_interrupt>
      58:	0c 94 d2 00 	jmp	0x1a4	; 0x1a4 <__bad_interrupt>
      5c:	0c 94 d2 00 	jmp	0x1a4	; 0x1a4 <__bad_interrupt>
      60:	0c 94 d2 00 	jmp	0x1a4	; 0x1a4 <__bad_interrupt>
      64:	0c 94 d2 00 	jmp	0x1a4	; 0x1a4 <__bad_interrupt>

00000068 <__trampolines_end>:
      68:	6e 61       	ori	r22, 0x1E	; 30
      6a:	6e 00       	.word	0x006e	; ????

0000006c <__c.2332>:
      6c:	69 6e 66 00 00 40 7a 10 f3 5a 00 a0 72 4e 18 09     inf..@z..Z..rN..
      7c:	00 10 a5 d4 e8 00 00 e8 76 48 17 00 00 e4 0b 54     ........vH.....T
      8c:	02 00 00 ca 9a 3b 00 00 00 e1 f5 05 00 00 80 96     .....;..........
      9c:	98 00 00 00 40 42 0f 00 00 00 a0 86 01 00 00 00     ....@B..........
      ac:	10 27 00 00 00 00 e8 03 00 00 00 00 64 00 00 00     .'..........d...
      bc:	00 00 0a 00 00 00 00 00 01 00 00 00 00 00 2c 76     ..............,v
      cc:	d8 88 dc 67 4f 08 23 df c1 df ae 59 e1 b1 b7 96     ...gO.#....Y....
      dc:	e5 e3 e4 53 c6 3a e6 51 99 76 96 e8 e6 c2 84 26     ...S.:.Q.v.....&
      ec:	eb 89 8c 9b 62 ed 40 7c 6f fc ef bc 9c 9f 40 f2     ....b.@|o.....@.
      fc:	ba a5 6f a5 f4 90 05 5a 2a f7 5c 93 6b 6c f9 67     ..o....Z*.\.kl.g
     10c:	6d c1 1b fc e0 e4 0d 47 fe f5 20 e6 b5 00 d0 ed     m......G.. .....
     11c:	90 2e 03 00 94 35 77 05 00 80 84 1e 08 00 00 20     .....5w........ 
     12c:	4e 0a 00 00 00 c8 0c 33 33 33 33 0f 98 6e 12 83     N......3333..n..
     13c:	11 41 ef 8d 21 14 89 3b e6 55 16 cf fe e6 db 18     .A..!..;.U......
     14c:	d1 84 4b 38 1b f7 7c 1d 90 1d a4 bb e4 24 20 32     ..K8..|......$ 2
     15c:	84 72 5e 22 81 00 c9 f1 24 ec a1 e5 3d 27           .r^"....$...='

0000016a <__ctors_end>:
     16a:	11 24       	eor	r1, r1
     16c:	1f be       	out	0x3f, r1	; 63
     16e:	cf ef       	ldi	r28, 0xFF	; 255
     170:	d8 e0       	ldi	r29, 0x08	; 8
     172:	de bf       	out	0x3e, r29	; 62
     174:	cd bf       	out	0x3d, r28	; 61

00000176 <__do_copy_data>:
     176:	11 e0       	ldi	r17, 0x01	; 1
     178:	a0 e0       	ldi	r26, 0x00	; 0
     17a:	b1 e0       	ldi	r27, 0x01	; 1
     17c:	ec e8       	ldi	r30, 0x8C	; 140
     17e:	f3 e1       	ldi	r31, 0x13	; 19
     180:	02 c0       	rjmp	.+4      	; 0x186 <__do_copy_data+0x10>
     182:	05 90       	lpm	r0, Z+
     184:	0d 92       	st	X+, r0
     186:	a6 36       	cpi	r26, 0x66	; 102
     188:	b1 07       	cpc	r27, r17
     18a:	d9 f7       	brne	.-10     	; 0x182 <__do_copy_data+0xc>

0000018c <__do_clear_bss>:
     18c:	21 e0       	ldi	r18, 0x01	; 1
     18e:	a6 e6       	ldi	r26, 0x66	; 102
     190:	b1 e0       	ldi	r27, 0x01	; 1
     192:	01 c0       	rjmp	.+2      	; 0x196 <.do_clear_bss_start>

00000194 <.do_clear_bss_loop>:
     194:	1d 92       	st	X+, r1

00000196 <.do_clear_bss_start>:
     196:	a3 39       	cpi	r26, 0x93	; 147
     198:	b2 07       	cpc	r27, r18
     19a:	e1 f7       	brne	.-8      	; 0x194 <.do_clear_bss_loop>
     19c:	0e 94 9d 01 	call	0x33a	; 0x33a <main>
     1a0:	0c 94 c4 09 	jmp	0x1388	; 0x1388 <_exit>

000001a4 <__bad_interrupt>:
     1a4:	0c 94 00 00 	jmp	0	; 0x0 <__vectors>

000001a8 <Pinsetup>:
		
    } 
}
void Pinsetup(void)
{
	DDRC &= ~(1<<DDC0);// PORTD3 becomes an input pin
     1a8:	38 98       	cbi	0x07, 0	; 7
	PORTC |= (1<<PORTC0);
     1aa:	40 9a       	sbi	0x08, 0	; 8
     1ac:	08 95       	ret

000001ae <milisec_delay>:
}

void milisec_delay(void)
{
	TCCR0A |= (1<<WGM01);// sets timer to CTC mode
     1ae:	84 b5       	in	r24, 0x24	; 36
     1b0:	82 60       	ori	r24, 0x02	; 2
     1b2:	84 bd       	out	0x24, r24	; 36
	
	OCR0A = 0xF9;// this value will asure a 1 milisecond delay for a prescalar of 64
     1b4:	89 ef       	ldi	r24, 0xF9	; 249
     1b6:	87 bd       	out	0x27, r24	; 39
	
	TIMSK0|= (1<<OCIE0A);// this line enables the timer0 Compare Match A Interrupt
     1b8:	ee e6       	ldi	r30, 0x6E	; 110
     1ba:	f0 e0       	ldi	r31, 0x00	; 0
     1bc:	80 81       	ld	r24, Z
     1be:	82 60       	ori	r24, 0x02	; 2
     1c0:	80 83       	st	Z, r24
	
	TCCR0B |= (1<<CS01) | (1<<CS00);// this line sets the value for the prescaler as 64 and it also starts the timer
     1c2:	85 b5       	in	r24, 0x25	; 37
     1c4:	83 60       	ori	r24, 0x03	; 3
     1c6:	85 bd       	out	0x25, r24	; 37
     1c8:	08 95       	ret

000001ca <interrupt_enabler>:
	EICRA &= ~(1<<ISC10);
	
	EIMSK |= (1<<INT1);// enables external interrupt number 1 (PD3)
	
	EIMSK &= ~(1<<INT0);*/
	PCICR |= (1<<PCIE1);
     1ca:	e8 e6       	ldi	r30, 0x68	; 104
     1cc:	f0 e0       	ldi	r31, 0x00	; 0
     1ce:	80 81       	ld	r24, Z
     1d0:	82 60       	ori	r24, 0x02	; 2
     1d2:	80 83       	st	Z, r24
	PCMSK1 |= (1<<PCINT8);// enables interupt at D0
     1d4:	ec e6       	ldi	r30, 0x6C	; 108
     1d6:	f0 e0       	ldi	r31, 0x00	; 0
     1d8:	80 81       	ld	r24, Z
     1da:	81 60       	ori	r24, 0x01	; 1
     1dc:	80 83       	st	Z, r24
	//PCMSK2 |= (1<<PCINT17);// enables interrupt at D1
	
	sei();
     1de:	78 94       	sei
     1e0:	08 95       	ret

000001e2 <slid_counter>:
}

void slid_counter(void)
{
	if( (( PINC &= (0<<DDC0) )==0) && (flag1==1))
     1e2:	86 b1       	in	r24, 0x06	; 6
     1e4:	16 b8       	out	0x06, r1	; 6
     1e6:	80 91 6a 01 	lds	r24, 0x016A	; 0x80016a <flag1>
     1ea:	90 91 6b 01 	lds	r25, 0x016B	; 0x80016b <flag1+0x1>
     1ee:	01 97       	sbiw	r24, 0x01	; 1
     1f0:	29 f5       	brne	.+74     	; 0x23c <slid_counter+0x5a>
	{
		nr_slids_before=nr_slids;
     1f2:	80 91 6e 01 	lds	r24, 0x016E	; 0x80016e <nr_slids>
     1f6:	90 91 6f 01 	lds	r25, 0x016F	; 0x80016f <nr_slids+0x1>
     1fa:	90 93 67 01 	sts	0x0167, r25	; 0x800167 <__data_end+0x1>
     1fe:	80 93 66 01 	sts	0x0166, r24	; 0x800166 <__data_end>
		timer_value_holder=travel_time;
     202:	80 91 88 01 	lds	r24, 0x0188	; 0x800188 <travel_time>
     206:	90 91 89 01 	lds	r25, 0x0189	; 0x800189 <travel_time+0x1>
     20a:	a0 91 8a 01 	lds	r26, 0x018A	; 0x80018a <travel_time+0x2>
     20e:	b0 91 8b 01 	lds	r27, 0x018B	; 0x80018b <travel_time+0x3>
     212:	80 93 80 01 	sts	0x0180, r24	; 0x800180 <timer_value_holder>
     216:	90 93 81 01 	sts	0x0181, r25	; 0x800181 <timer_value_holder+0x1>
     21a:	a0 93 82 01 	sts	0x0182, r26	; 0x800182 <timer_value_holder+0x2>
     21e:	b0 93 83 01 	sts	0x0183, r27	; 0x800183 <timer_value_holder+0x3>
		nr_slids++;
     222:	80 91 6e 01 	lds	r24, 0x016E	; 0x80016e <nr_slids>
     226:	90 91 6f 01 	lds	r25, 0x016F	; 0x80016f <nr_slids+0x1>
     22a:	01 96       	adiw	r24, 0x01	; 1
     22c:	90 93 6f 01 	sts	0x016F, r25	; 0x80016f <nr_slids+0x1>
     230:	80 93 6e 01 	sts	0x016E, r24	; 0x80016e <nr_slids>
		flag1=0;
     234:	10 92 6b 01 	sts	0x016B, r1	; 0x80016b <flag1+0x1>
     238:	10 92 6a 01 	sts	0x016A, r1	; 0x80016a <flag1>
     23c:	08 95       	ret

0000023e <slids_per_min>:
	}
}

void slids_per_min(void)
{
	timer=travel_time;
     23e:	80 91 88 01 	lds	r24, 0x0188	; 0x800188 <travel_time>
     242:	90 91 89 01 	lds	r25, 0x0189	; 0x800189 <travel_time+0x1>
     246:	a0 91 8a 01 	lds	r26, 0x018A	; 0x80018a <travel_time+0x2>
     24a:	b0 91 8b 01 	lds	r27, 0x018B	; 0x80018b <travel_time+0x3>
     24e:	80 93 84 01 	sts	0x0184, r24	; 0x800184 <timer>
     252:	90 93 85 01 	sts	0x0185, r25	; 0x800185 <timer+0x1>
     256:	a0 93 86 01 	sts	0x0186, r26	; 0x800186 <timer+0x2>
     25a:	b0 93 87 01 	sts	0x0187, r27	; 0x800187 <timer+0x3>
	if( (( PINC &= (0<<DDC0) )==0) && (flag2==1) )
     25e:	86 b1       	in	r24, 0x06	; 6
     260:	16 b8       	out	0x06, r1	; 6
     262:	80 91 68 01 	lds	r24, 0x0168	; 0x800168 <flag2>
     266:	90 91 69 01 	lds	r25, 0x0169	; 0x800169 <flag2+0x1>
     26a:	01 97       	sbiw	r24, 0x01	; 1
     26c:	71 f5       	brne	.+92     	; 0x2ca <slids_per_min+0x8c>
	{
		t=timer_between_two_slids;
     26e:	80 91 7c 01 	lds	r24, 0x017C	; 0x80017c <timer_between_two_slids>
     272:	90 91 7d 01 	lds	r25, 0x017D	; 0x80017d <timer_between_two_slids+0x1>
     276:	a0 91 7e 01 	lds	r26, 0x017E	; 0x80017e <timer_between_two_slids+0x2>
     27a:	b0 91 7f 01 	lds	r27, 0x017F	; 0x80017f <timer_between_two_slids+0x3>
     27e:	80 93 78 01 	sts	0x0178, r24	; 0x800178 <t>
     282:	90 93 79 01 	sts	0x0179, r25	; 0x800179 <t+0x1>
     286:	a0 93 7a 01 	sts	0x017A, r26	; 0x80017a <t+0x2>
     28a:	b0 93 7b 01 	sts	0x017B, r27	; 0x80017b <t+0x3>
		flag2=0;
     28e:	10 92 69 01 	sts	0x0169, r1	; 0x800169 <flag2+0x1>
     292:	10 92 68 01 	sts	0x0168, r1	; 0x800168 <flag2>
		
		avg_slids_per_min=(1000*60.0)/timer_between_two_slids; //average slids/min
     296:	60 91 7c 01 	lds	r22, 0x017C	; 0x80017c <timer_between_two_slids>
     29a:	70 91 7d 01 	lds	r23, 0x017D	; 0x80017d <timer_between_two_slids+0x1>
     29e:	80 91 7e 01 	lds	r24, 0x017E	; 0x80017e <timer_between_two_slids+0x2>
     2a2:	90 91 7f 01 	lds	r25, 0x017F	; 0x80017f <timer_between_two_slids+0x3>
     2a6:	0e 94 49 03 	call	0x692	; 0x692 <__floatsisf>
     2aa:	9b 01       	movw	r18, r22
     2ac:	ac 01       	movw	r20, r24
     2ae:	60 e0       	ldi	r22, 0x00	; 0
     2b0:	70 e6       	ldi	r23, 0x60	; 96
     2b2:	8a e6       	ldi	r24, 0x6A	; 106
     2b4:	97 e4       	ldi	r25, 0x47	; 71
     2b6:	0e 94 9f 02 	call	0x53e	; 0x53e <__divsf3>
     2ba:	60 93 74 01 	sts	0x0174, r22	; 0x800174 <avg_slids_per_min>
     2be:	70 93 75 01 	sts	0x0175, r23	; 0x800175 <avg_slids_per_min+0x1>
     2c2:	80 93 76 01 	sts	0x0176, r24	; 0x800176 <avg_slids_per_min+0x2>
     2c6:	90 93 77 01 	sts	0x0177, r25	; 0x800177 <avg_slids_per_min+0x3>
     2ca:	08 95       	ret

000002cc <show_values>:
	}
}

void show_values()
{
	if(x==1) x=2;
     2cc:	80 91 8c 01 	lds	r24, 0x018C	; 0x80018c <x>
     2d0:	81 30       	cpi	r24, 0x01	; 1
     2d2:	81 f1       	breq	.+96     	; 0x334 <show_values+0x68>
	if(x==0){
     2d4:	81 11       	cpse	r24, r1
     2d6:	2a c0       	rjmp	.+84     	; 0x32c <show_values+0x60>
	printf("The total travel time is %ld ms\n",travel_time);
     2d8:	80 91 88 01 	lds	r24, 0x0188	; 0x800188 <travel_time>
     2dc:	90 91 89 01 	lds	r25, 0x0189	; 0x800189 <travel_time+0x1>
     2e0:	a0 91 8a 01 	lds	r26, 0x018A	; 0x80018a <travel_time+0x2>
     2e4:	b0 91 8b 01 	lds	r27, 0x018B	; 0x80018b <travel_time+0x3>
     2e8:	bf 93       	push	r27
     2ea:	af 93       	push	r26
     2ec:	9f 93       	push	r25
     2ee:	8f 93       	push	r24
     2f0:	8c e1       	ldi	r24, 0x1C	; 28
     2f2:	91 e0       	ldi	r25, 0x01	; 1
     2f4:	9f 93       	push	r25
     2f6:	8f 93       	push	r24
     2f8:	0e 94 20 09 	call	0x1240	; 0x1240 <printf>
	printf("The number of slids detected is %d \n",nr_slids);
     2fc:	80 91 6e 01 	lds	r24, 0x016E	; 0x80016e <nr_slids>
     300:	90 91 6f 01 	lds	r25, 0x016F	; 0x80016f <nr_slids+0x1>
     304:	9f 93       	push	r25
     306:	8f 93       	push	r24
     308:	8d e3       	ldi	r24, 0x3D	; 61
     30a:	91 e0       	ldi	r25, 0x01	; 1
     30c:	9f 93       	push	r25
     30e:	8f 93       	push	r24
     310:	0e 94 20 09 	call	0x1240	; 0x1240 <printf>
	//printf("timer between slids is %ld and t is %ld \n",timer_between_two_slids,t);
//	printf("The value that is stored in timer value holder is %ld \n",timer_value_holder);
	// printf("Distance traveled in cm is %d and the average nr of slids/min is %0.2f\n",distance,(float)avg_slids_per_min);
	//printf("The average rpm is %0.2f rotations/min \n",avg_rpm);
	x=1;
     314:	81 e0       	ldi	r24, 0x01	; 1
     316:	80 93 8c 01 	sts	0x018C, r24	; 0x80018c <x>
     31a:	8d b7       	in	r24, 0x3d	; 61
     31c:	9e b7       	in	r25, 0x3e	; 62
     31e:	0a 96       	adiw	r24, 0x0a	; 10
     320:	0f b6       	in	r0, 0x3f	; 63
     322:	f8 94       	cli
     324:	9e bf       	out	0x3e, r25	; 62
     326:	0f be       	out	0x3f, r0	; 63
     328:	8d bf       	out	0x3d, r24	; 61
     32a:	08 95       	ret
	}
	if(x==2) x=0;
     32c:	80 91 8c 01 	lds	r24, 0x018C	; 0x80018c <x>
     330:	82 30       	cpi	r24, 0x02	; 2
     332:	11 f4       	brne	.+4      	; 0x338 <show_values+0x6c>
     334:	10 92 8c 01 	sts	0x018C, r1	; 0x80018c <x>
     338:	08 95       	ret

0000033a <main>:
volatile int nr_slids=0,distance=0,flag1=0,flag2=0,nr_slids_before=0;


int main(void)
{
	printf("hi \n");
     33a:	82 e6       	ldi	r24, 0x62	; 98
     33c:	91 e0       	ldi	r25, 0x01	; 1
     33e:	0e 94 36 09 	call	0x126c	; 0x126c <puts>
	uart_init();
     342:	0e 94 83 02 	call	0x506	; 0x506 <uart_init>
	io_redirect();
     346:	0e 94 94 02 	call	0x528	; 0x528 <io_redirect>
	
	Pinsetup(); 
     34a:	0e 94 d4 00 	call	0x1a8	; 0x1a8 <Pinsetup>
	interrupt_enabler();
     34e:	0e 94 e5 00 	call	0x1ca	; 0x1ca <interrupt_enabler>
    while (1) 
    {
		milisec_delay();
     352:	0e 94 d7 00 	call	0x1ae	; 0x1ae <milisec_delay>
		
		slid_counter();
     356:	0e 94 f1 00 	call	0x1e2	; 0x1e2 <slid_counter>
		
		distance =Wheel_diameter*3.14159*nr_slids/SLID_NR; //this will give us the total distance traveled by the wheeel in cm
     35a:	60 91 6e 01 	lds	r22, 0x016E	; 0x80016e <nr_slids>
     35e:	70 91 6f 01 	lds	r23, 0x016F	; 0x80016f <nr_slids+0x1>
     362:	07 2e       	mov	r0, r23
     364:	00 0c       	add	r0, r0
     366:	88 0b       	sbc	r24, r24
     368:	99 0b       	sbc	r25, r25
     36a:	0e 94 49 03 	call	0x692	; 0x692 <__floatsisf>
     36e:	2c ed       	ldi	r18, 0xDC	; 220
     370:	3b ec       	ldi	r19, 0xCB	; 203
     372:	46 e9       	ldi	r20, 0x96	; 150
     374:	51 e4       	ldi	r21, 0x41	; 65
     376:	0e 94 d5 03 	call	0x7aa	; 0x7aa <__mulsf3>
     37a:	20 e0       	ldi	r18, 0x00	; 0
     37c:	30 e0       	ldi	r19, 0x00	; 0
     37e:	40 ec       	ldi	r20, 0xC0	; 192
     380:	50 e4       	ldi	r21, 0x40	; 64
     382:	0e 94 9f 02 	call	0x53e	; 0x53e <__divsf3>
     386:	0e 94 11 03 	call	0x622	; 0x622 <__fixsfsi>
     38a:	70 93 6d 01 	sts	0x016D, r23	; 0x80016d <distance+0x1>
     38e:	60 93 6c 01 	sts	0x016C, r22	; 0x80016c <distance>
		
		slids_per_min();
     392:	0e 94 1f 01 	call	0x23e	; 0x23e <slids_per_min>
		
		avg_rpm=avg_slids_per_min/SLID_NR;
     396:	60 91 74 01 	lds	r22, 0x0174	; 0x800174 <avg_slids_per_min>
     39a:	70 91 75 01 	lds	r23, 0x0175	; 0x800175 <avg_slids_per_min+0x1>
     39e:	80 91 76 01 	lds	r24, 0x0176	; 0x800176 <avg_slids_per_min+0x2>
     3a2:	90 91 77 01 	lds	r25, 0x0177	; 0x800177 <avg_slids_per_min+0x3>
     3a6:	20 e0       	ldi	r18, 0x00	; 0
     3a8:	30 e0       	ldi	r19, 0x00	; 0
     3aa:	40 ec       	ldi	r20, 0xC0	; 192
     3ac:	50 e4       	ldi	r21, 0x40	; 64
     3ae:	0e 94 9f 02 	call	0x53e	; 0x53e <__divsf3>
     3b2:	60 93 70 01 	sts	0x0170, r22	; 0x800170 <avg_rpm>
     3b6:	70 93 71 01 	sts	0x0171, r23	; 0x800171 <avg_rpm+0x1>
     3ba:	80 93 72 01 	sts	0x0172, r24	; 0x800172 <avg_rpm+0x2>
     3be:	90 93 73 01 	sts	0x0173, r25	; 0x800173 <avg_rpm+0x3>
			
		show_values();
     3c2:	0e 94 66 01 	call	0x2cc	; 0x2cc <show_values>
     3c6:	c5 cf       	rjmp	.-118    	; 0x352 <main+0x18>

000003c8 <__vector_4>:
	}
	if(x==2) x=0;
}

ISR (PCINT1_vect)// external interrupt 1
{
     3c8:	1f 92       	push	r1
     3ca:	0f 92       	push	r0
     3cc:	0f b6       	in	r0, 0x3f	; 63
     3ce:	0f 92       	push	r0
     3d0:	11 24       	eor	r1, r1
     3d2:	2f 93       	push	r18
     3d4:	3f 93       	push	r19
     3d6:	4f 93       	push	r20
     3d8:	5f 93       	push	r21
     3da:	6f 93       	push	r22
     3dc:	7f 93       	push	r23
     3de:	8f 93       	push	r24
     3e0:	9f 93       	push	r25
     3e2:	af 93       	push	r26
     3e4:	bf 93       	push	r27
     3e6:	cf 93       	push	r28
     3e8:	df 93       	push	r29
     3ea:	ef 93       	push	r30
     3ec:	ff 93       	push	r31
	while( ( PINC &= (1<<DDC0) ) == 0 )
     3ee:	86 b1       	in	r24, 0x06	; 6
     3f0:	81 70       	andi	r24, 0x01	; 1
     3f2:	86 b9       	out	0x06, r24	; 6
     3f4:	81 11       	cpse	r24, r1
     3f6:	12 c0       	rjmp	.+36     	; 0x41c <__EEPROM_REGION_LENGTH__+0x1c>
	{
		sei();
		
		milisec_delay();
		flag1=1;
     3f8:	c1 e0       	ldi	r28, 0x01	; 1
     3fa:	d0 e0       	ldi	r29, 0x00	; 0

ISR (PCINT1_vect)// external interrupt 1
{
	while( ( PINC &= (1<<DDC0) ) == 0 )
	{
		sei();
     3fc:	78 94       	sei
		
		milisec_delay();
     3fe:	0e 94 d7 00 	call	0x1ae	; 0x1ae <milisec_delay>
		flag1=1;
     402:	d0 93 6b 01 	sts	0x016B, r29	; 0x80016b <flag1+0x1>
     406:	c0 93 6a 01 	sts	0x016A, r28	; 0x80016a <flag1>
		flag2=1;
     40a:	d0 93 69 01 	sts	0x0169, r29	; 0x800169 <flag2+0x1>
     40e:	c0 93 68 01 	sts	0x0168, r28	; 0x800168 <flag2>
	if(x==2) x=0;
}

ISR (PCINT1_vect)// external interrupt 1
{
	while( ( PINC &= (1<<DDC0) ) == 0 )
     412:	86 b1       	in	r24, 0x06	; 6
     414:	81 70       	andi	r24, 0x01	; 1
     416:	86 b9       	out	0x06, r24	; 6
     418:	88 23       	and	r24, r24
     41a:	81 f3       	breq	.-32     	; 0x3fc <__vector_4+0x34>
		flag2=1;
	}

 
	
}
     41c:	ff 91       	pop	r31
     41e:	ef 91       	pop	r30
     420:	df 91       	pop	r29
     422:	cf 91       	pop	r28
     424:	bf 91       	pop	r27
     426:	af 91       	pop	r26
     428:	9f 91       	pop	r25
     42a:	8f 91       	pop	r24
     42c:	7f 91       	pop	r23
     42e:	6f 91       	pop	r22
     430:	5f 91       	pop	r21
     432:	4f 91       	pop	r20
     434:	3f 91       	pop	r19
     436:	2f 91       	pop	r18
     438:	0f 90       	pop	r0
     43a:	0f be       	out	0x3f, r0	; 63
     43c:	0f 90       	pop	r0
     43e:	1f 90       	pop	r1
     440:	18 95       	reti

00000442 <__vector_14>:


ISR (TIMER0_COMPA_vect) // timer0 overflow interrupt
{
     442:	1f 92       	push	r1
     444:	0f 92       	push	r0
     446:	0f b6       	in	r0, 0x3f	; 63
     448:	0f 92       	push	r0
     44a:	11 24       	eor	r1, r1
     44c:	4f 93       	push	r20
     44e:	5f 93       	push	r21
     450:	6f 93       	push	r22
     452:	7f 93       	push	r23
     454:	8f 93       	push	r24
     456:	9f 93       	push	r25
     458:	af 93       	push	r26
     45a:	bf 93       	push	r27
	sei();
     45c:	78 94       	sei
	travel_time++;
     45e:	80 91 88 01 	lds	r24, 0x0188	; 0x800188 <travel_time>
     462:	90 91 89 01 	lds	r25, 0x0189	; 0x800189 <travel_time+0x1>
     466:	a0 91 8a 01 	lds	r26, 0x018A	; 0x80018a <travel_time+0x2>
     46a:	b0 91 8b 01 	lds	r27, 0x018B	; 0x80018b <travel_time+0x3>
     46e:	01 96       	adiw	r24, 0x01	; 1
     470:	a1 1d       	adc	r26, r1
     472:	b1 1d       	adc	r27, r1
     474:	80 93 88 01 	sts	0x0188, r24	; 0x800188 <travel_time>
     478:	90 93 89 01 	sts	0x0189, r25	; 0x800189 <travel_time+0x1>
     47c:	a0 93 8a 01 	sts	0x018A, r26	; 0x80018a <travel_time+0x2>
     480:	b0 93 8b 01 	sts	0x018B, r27	; 0x80018b <travel_time+0x3>
	timer_between_two_slids=travel_time-timer_value_holder;
     484:	80 91 88 01 	lds	r24, 0x0188	; 0x800188 <travel_time>
     488:	90 91 89 01 	lds	r25, 0x0189	; 0x800189 <travel_time+0x1>
     48c:	a0 91 8a 01 	lds	r26, 0x018A	; 0x80018a <travel_time+0x2>
     490:	b0 91 8b 01 	lds	r27, 0x018B	; 0x80018b <travel_time+0x3>
     494:	40 91 80 01 	lds	r20, 0x0180	; 0x800180 <timer_value_holder>
     498:	50 91 81 01 	lds	r21, 0x0181	; 0x800181 <timer_value_holder+0x1>
     49c:	60 91 82 01 	lds	r22, 0x0182	; 0x800182 <timer_value_holder+0x2>
     4a0:	70 91 83 01 	lds	r23, 0x0183	; 0x800183 <timer_value_holder+0x3>
     4a4:	84 1b       	sub	r24, r20
     4a6:	95 0b       	sbc	r25, r21
     4a8:	a6 0b       	sbc	r26, r22
     4aa:	b7 0b       	sbc	r27, r23
     4ac:	80 93 7c 01 	sts	0x017C, r24	; 0x80017c <timer_between_two_slids>
     4b0:	90 93 7d 01 	sts	0x017D, r25	; 0x80017d <timer_between_two_slids+0x1>
     4b4:	a0 93 7e 01 	sts	0x017E, r26	; 0x80017e <timer_between_two_slids+0x2>
     4b8:	b0 93 7f 01 	sts	0x017F, r27	; 0x80017f <timer_between_two_slids+0x3>
     4bc:	bf 91       	pop	r27
     4be:	af 91       	pop	r26
     4c0:	9f 91       	pop	r25
     4c2:	8f 91       	pop	r24
     4c4:	7f 91       	pop	r23
     4c6:	6f 91       	pop	r22
     4c8:	5f 91       	pop	r21
     4ca:	4f 91       	pop	r20
     4cc:	0f 90       	pop	r0
     4ce:	0f be       	out	0x3f, r0	; 63
     4d0:	0f 90       	pop	r0
     4d2:	1f 90       	pop	r1
     4d4:	18 95       	reti

000004d6 <uart_putchar>:
     4d6:	cf 93       	push	r28
     4d8:	c8 2f       	mov	r28, r24
     4da:	8a 30       	cpi	r24, 0x0A	; 10
     4dc:	19 f4       	brne	.+6      	; 0x4e4 <uart_putchar+0xe>
     4de:	8d e0       	ldi	r24, 0x0D	; 13
     4e0:	0e 94 6b 02 	call	0x4d6	; 0x4d6 <uart_putchar>
     4e4:	e0 ec       	ldi	r30, 0xC0	; 192
     4e6:	f0 e0       	ldi	r31, 0x00	; 0
     4e8:	80 81       	ld	r24, Z
     4ea:	85 ff       	sbrs	r24, 5
     4ec:	fd cf       	rjmp	.-6      	; 0x4e8 <uart_putchar+0x12>
     4ee:	c0 93 c6 00 	sts	0x00C6, r28	; 0x8000c6 <__TEXT_REGION_LENGTH__+0x7f80c6>
     4f2:	cf 91       	pop	r28
     4f4:	08 95       	ret

000004f6 <uart_getchar>:
     4f6:	e0 ec       	ldi	r30, 0xC0	; 192
     4f8:	f0 e0       	ldi	r31, 0x00	; 0
     4fa:	80 81       	ld	r24, Z
     4fc:	88 23       	and	r24, r24
     4fe:	ec f7       	brge	.-6      	; 0x4fa <uart_getchar+0x4>
     500:	80 91 c6 00 	lds	r24, 0x00C6	; 0x8000c6 <__TEXT_REGION_LENGTH__+0x7f80c6>
     504:	08 95       	ret

00000506 <uart_init>:
     506:	10 92 c5 00 	sts	0x00C5, r1	; 0x8000c5 <__TEXT_REGION_LENGTH__+0x7f80c5>
     50a:	87 e6       	ldi	r24, 0x67	; 103
     50c:	80 93 c4 00 	sts	0x00C4, r24	; 0x8000c4 <__TEXT_REGION_LENGTH__+0x7f80c4>
     510:	e0 ec       	ldi	r30, 0xC0	; 192
     512:	f0 e0       	ldi	r31, 0x00	; 0
     514:	80 81       	ld	r24, Z
     516:	8d 7f       	andi	r24, 0xFD	; 253
     518:	80 83       	st	Z, r24
     51a:	86 e0       	ldi	r24, 0x06	; 6
     51c:	80 93 c2 00 	sts	0x00C2, r24	; 0x8000c2 <__TEXT_REGION_LENGTH__+0x7f80c2>
     520:	88 e1       	ldi	r24, 0x18	; 24
     522:	80 93 c1 00 	sts	0x00C1, r24	; 0x8000c1 <__TEXT_REGION_LENGTH__+0x7f80c1>
     526:	08 95       	ret

00000528 <io_redirect>:
     528:	ed e8       	ldi	r30, 0x8D	; 141
     52a:	f1 e0       	ldi	r31, 0x01	; 1
     52c:	8e e0       	ldi	r24, 0x0E	; 14
     52e:	91 e0       	ldi	r25, 0x01	; 1
     530:	93 83       	std	Z+3, r25	; 0x03
     532:	82 83       	std	Z+2, r24	; 0x02
     534:	80 e0       	ldi	r24, 0x00	; 0
     536:	91 e0       	ldi	r25, 0x01	; 1
     538:	91 83       	std	Z+1, r25	; 0x01
     53a:	80 83       	st	Z, r24
     53c:	08 95       	ret

0000053e <__divsf3>:
     53e:	0e 94 b3 02 	call	0x566	; 0x566 <__divsf3x>
     542:	0c 94 9b 03 	jmp	0x736	; 0x736 <__fp_round>
     546:	0e 94 94 03 	call	0x728	; 0x728 <__fp_pscB>
     54a:	58 f0       	brcs	.+22     	; 0x562 <__divsf3+0x24>
     54c:	0e 94 8d 03 	call	0x71a	; 0x71a <__fp_pscA>
     550:	40 f0       	brcs	.+16     	; 0x562 <__divsf3+0x24>
     552:	29 f4       	brne	.+10     	; 0x55e <__divsf3+0x20>
     554:	5f 3f       	cpi	r21, 0xFF	; 255
     556:	29 f0       	breq	.+10     	; 0x562 <__divsf3+0x24>
     558:	0c 94 84 03 	jmp	0x708	; 0x708 <__fp_inf>
     55c:	51 11       	cpse	r21, r1
     55e:	0c 94 cf 03 	jmp	0x79e	; 0x79e <__fp_szero>
     562:	0c 94 8a 03 	jmp	0x714	; 0x714 <__fp_nan>

00000566 <__divsf3x>:
     566:	0e 94 ac 03 	call	0x758	; 0x758 <__fp_split3>
     56a:	68 f3       	brcs	.-38     	; 0x546 <__divsf3+0x8>

0000056c <__divsf3_pse>:
     56c:	99 23       	and	r25, r25
     56e:	b1 f3       	breq	.-20     	; 0x55c <__divsf3+0x1e>
     570:	55 23       	and	r21, r21
     572:	91 f3       	breq	.-28     	; 0x558 <__divsf3+0x1a>
     574:	95 1b       	sub	r25, r21
     576:	55 0b       	sbc	r21, r21
     578:	bb 27       	eor	r27, r27
     57a:	aa 27       	eor	r26, r26
     57c:	62 17       	cp	r22, r18
     57e:	73 07       	cpc	r23, r19
     580:	84 07       	cpc	r24, r20
     582:	38 f0       	brcs	.+14     	; 0x592 <__divsf3_pse+0x26>
     584:	9f 5f       	subi	r25, 0xFF	; 255
     586:	5f 4f       	sbci	r21, 0xFF	; 255
     588:	22 0f       	add	r18, r18
     58a:	33 1f       	adc	r19, r19
     58c:	44 1f       	adc	r20, r20
     58e:	aa 1f       	adc	r26, r26
     590:	a9 f3       	breq	.-22     	; 0x57c <__divsf3_pse+0x10>
     592:	35 d0       	rcall	.+106    	; 0x5fe <__divsf3_pse+0x92>
     594:	0e 2e       	mov	r0, r30
     596:	3a f0       	brmi	.+14     	; 0x5a6 <__divsf3_pse+0x3a>
     598:	e0 e8       	ldi	r30, 0x80	; 128
     59a:	32 d0       	rcall	.+100    	; 0x600 <__divsf3_pse+0x94>
     59c:	91 50       	subi	r25, 0x01	; 1
     59e:	50 40       	sbci	r21, 0x00	; 0
     5a0:	e6 95       	lsr	r30
     5a2:	00 1c       	adc	r0, r0
     5a4:	ca f7       	brpl	.-14     	; 0x598 <__divsf3_pse+0x2c>
     5a6:	2b d0       	rcall	.+86     	; 0x5fe <__divsf3_pse+0x92>
     5a8:	fe 2f       	mov	r31, r30
     5aa:	29 d0       	rcall	.+82     	; 0x5fe <__divsf3_pse+0x92>
     5ac:	66 0f       	add	r22, r22
     5ae:	77 1f       	adc	r23, r23
     5b0:	88 1f       	adc	r24, r24
     5b2:	bb 1f       	adc	r27, r27
     5b4:	26 17       	cp	r18, r22
     5b6:	37 07       	cpc	r19, r23
     5b8:	48 07       	cpc	r20, r24
     5ba:	ab 07       	cpc	r26, r27
     5bc:	b0 e8       	ldi	r27, 0x80	; 128
     5be:	09 f0       	breq	.+2      	; 0x5c2 <__divsf3_pse+0x56>
     5c0:	bb 0b       	sbc	r27, r27
     5c2:	80 2d       	mov	r24, r0
     5c4:	bf 01       	movw	r22, r30
     5c6:	ff 27       	eor	r31, r31
     5c8:	93 58       	subi	r25, 0x83	; 131
     5ca:	5f 4f       	sbci	r21, 0xFF	; 255
     5cc:	3a f0       	brmi	.+14     	; 0x5dc <__divsf3_pse+0x70>
     5ce:	9e 3f       	cpi	r25, 0xFE	; 254
     5d0:	51 05       	cpc	r21, r1
     5d2:	78 f0       	brcs	.+30     	; 0x5f2 <__divsf3_pse+0x86>
     5d4:	0c 94 84 03 	jmp	0x708	; 0x708 <__fp_inf>
     5d8:	0c 94 cf 03 	jmp	0x79e	; 0x79e <__fp_szero>
     5dc:	5f 3f       	cpi	r21, 0xFF	; 255
     5de:	e4 f3       	brlt	.-8      	; 0x5d8 <__divsf3_pse+0x6c>
     5e0:	98 3e       	cpi	r25, 0xE8	; 232
     5e2:	d4 f3       	brlt	.-12     	; 0x5d8 <__divsf3_pse+0x6c>
     5e4:	86 95       	lsr	r24
     5e6:	77 95       	ror	r23
     5e8:	67 95       	ror	r22
     5ea:	b7 95       	ror	r27
     5ec:	f7 95       	ror	r31
     5ee:	9f 5f       	subi	r25, 0xFF	; 255
     5f0:	c9 f7       	brne	.-14     	; 0x5e4 <__divsf3_pse+0x78>
     5f2:	88 0f       	add	r24, r24
     5f4:	91 1d       	adc	r25, r1
     5f6:	96 95       	lsr	r25
     5f8:	87 95       	ror	r24
     5fa:	97 f9       	bld	r25, 7
     5fc:	08 95       	ret
     5fe:	e1 e0       	ldi	r30, 0x01	; 1
     600:	66 0f       	add	r22, r22
     602:	77 1f       	adc	r23, r23
     604:	88 1f       	adc	r24, r24
     606:	bb 1f       	adc	r27, r27
     608:	62 17       	cp	r22, r18
     60a:	73 07       	cpc	r23, r19
     60c:	84 07       	cpc	r24, r20
     60e:	ba 07       	cpc	r27, r26
     610:	20 f0       	brcs	.+8      	; 0x61a <__divsf3_pse+0xae>
     612:	62 1b       	sub	r22, r18
     614:	73 0b       	sbc	r23, r19
     616:	84 0b       	sbc	r24, r20
     618:	ba 0b       	sbc	r27, r26
     61a:	ee 1f       	adc	r30, r30
     61c:	88 f7       	brcc	.-30     	; 0x600 <__divsf3_pse+0x94>
     61e:	e0 95       	com	r30
     620:	08 95       	ret

00000622 <__fixsfsi>:
     622:	0e 94 18 03 	call	0x630	; 0x630 <__fixunssfsi>
     626:	68 94       	set
     628:	b1 11       	cpse	r27, r1
     62a:	0c 94 cf 03 	jmp	0x79e	; 0x79e <__fp_szero>
     62e:	08 95       	ret

00000630 <__fixunssfsi>:
     630:	0e 94 b4 03 	call	0x768	; 0x768 <__fp_splitA>
     634:	88 f0       	brcs	.+34     	; 0x658 <__fixunssfsi+0x28>
     636:	9f 57       	subi	r25, 0x7F	; 127
     638:	98 f0       	brcs	.+38     	; 0x660 <__fixunssfsi+0x30>
     63a:	b9 2f       	mov	r27, r25
     63c:	99 27       	eor	r25, r25
     63e:	b7 51       	subi	r27, 0x17	; 23
     640:	b0 f0       	brcs	.+44     	; 0x66e <__fixunssfsi+0x3e>
     642:	e1 f0       	breq	.+56     	; 0x67c <__fixunssfsi+0x4c>
     644:	66 0f       	add	r22, r22
     646:	77 1f       	adc	r23, r23
     648:	88 1f       	adc	r24, r24
     64a:	99 1f       	adc	r25, r25
     64c:	1a f0       	brmi	.+6      	; 0x654 <__fixunssfsi+0x24>
     64e:	ba 95       	dec	r27
     650:	c9 f7       	brne	.-14     	; 0x644 <__fixunssfsi+0x14>
     652:	14 c0       	rjmp	.+40     	; 0x67c <__fixunssfsi+0x4c>
     654:	b1 30       	cpi	r27, 0x01	; 1
     656:	91 f0       	breq	.+36     	; 0x67c <__fixunssfsi+0x4c>
     658:	0e 94 ce 03 	call	0x79c	; 0x79c <__fp_zero>
     65c:	b1 e0       	ldi	r27, 0x01	; 1
     65e:	08 95       	ret
     660:	0c 94 ce 03 	jmp	0x79c	; 0x79c <__fp_zero>
     664:	67 2f       	mov	r22, r23
     666:	78 2f       	mov	r23, r24
     668:	88 27       	eor	r24, r24
     66a:	b8 5f       	subi	r27, 0xF8	; 248
     66c:	39 f0       	breq	.+14     	; 0x67c <__fixunssfsi+0x4c>
     66e:	b9 3f       	cpi	r27, 0xF9	; 249
     670:	cc f3       	brlt	.-14     	; 0x664 <__fixunssfsi+0x34>
     672:	86 95       	lsr	r24
     674:	77 95       	ror	r23
     676:	67 95       	ror	r22
     678:	b3 95       	inc	r27
     67a:	d9 f7       	brne	.-10     	; 0x672 <__fixunssfsi+0x42>
     67c:	3e f4       	brtc	.+14     	; 0x68c <__fixunssfsi+0x5c>
     67e:	90 95       	com	r25
     680:	80 95       	com	r24
     682:	70 95       	com	r23
     684:	61 95       	neg	r22
     686:	7f 4f       	sbci	r23, 0xFF	; 255
     688:	8f 4f       	sbci	r24, 0xFF	; 255
     68a:	9f 4f       	sbci	r25, 0xFF	; 255
     68c:	08 95       	ret

0000068e <__floatunsisf>:
     68e:	e8 94       	clt
     690:	09 c0       	rjmp	.+18     	; 0x6a4 <__floatsisf+0x12>

00000692 <__floatsisf>:
     692:	97 fb       	bst	r25, 7
     694:	3e f4       	brtc	.+14     	; 0x6a4 <__floatsisf+0x12>
     696:	90 95       	com	r25
     698:	80 95       	com	r24
     69a:	70 95       	com	r23
     69c:	61 95       	neg	r22
     69e:	7f 4f       	sbci	r23, 0xFF	; 255
     6a0:	8f 4f       	sbci	r24, 0xFF	; 255
     6a2:	9f 4f       	sbci	r25, 0xFF	; 255
     6a4:	99 23       	and	r25, r25
     6a6:	a9 f0       	breq	.+42     	; 0x6d2 <__floatsisf+0x40>
     6a8:	f9 2f       	mov	r31, r25
     6aa:	96 e9       	ldi	r25, 0x96	; 150
     6ac:	bb 27       	eor	r27, r27
     6ae:	93 95       	inc	r25
     6b0:	f6 95       	lsr	r31
     6b2:	87 95       	ror	r24
     6b4:	77 95       	ror	r23
     6b6:	67 95       	ror	r22
     6b8:	b7 95       	ror	r27
     6ba:	f1 11       	cpse	r31, r1
     6bc:	f8 cf       	rjmp	.-16     	; 0x6ae <__floatsisf+0x1c>
     6be:	fa f4       	brpl	.+62     	; 0x6fe <__floatsisf+0x6c>
     6c0:	bb 0f       	add	r27, r27
     6c2:	11 f4       	brne	.+4      	; 0x6c8 <__floatsisf+0x36>
     6c4:	60 ff       	sbrs	r22, 0
     6c6:	1b c0       	rjmp	.+54     	; 0x6fe <__floatsisf+0x6c>
     6c8:	6f 5f       	subi	r22, 0xFF	; 255
     6ca:	7f 4f       	sbci	r23, 0xFF	; 255
     6cc:	8f 4f       	sbci	r24, 0xFF	; 255
     6ce:	9f 4f       	sbci	r25, 0xFF	; 255
     6d0:	16 c0       	rjmp	.+44     	; 0x6fe <__floatsisf+0x6c>
     6d2:	88 23       	and	r24, r24
     6d4:	11 f0       	breq	.+4      	; 0x6da <__floatsisf+0x48>
     6d6:	96 e9       	ldi	r25, 0x96	; 150
     6d8:	11 c0       	rjmp	.+34     	; 0x6fc <__floatsisf+0x6a>
     6da:	77 23       	and	r23, r23
     6dc:	21 f0       	breq	.+8      	; 0x6e6 <__floatsisf+0x54>
     6de:	9e e8       	ldi	r25, 0x8E	; 142
     6e0:	87 2f       	mov	r24, r23
     6e2:	76 2f       	mov	r23, r22
     6e4:	05 c0       	rjmp	.+10     	; 0x6f0 <__floatsisf+0x5e>
     6e6:	66 23       	and	r22, r22
     6e8:	71 f0       	breq	.+28     	; 0x706 <__floatsisf+0x74>
     6ea:	96 e8       	ldi	r25, 0x86	; 134
     6ec:	86 2f       	mov	r24, r22
     6ee:	70 e0       	ldi	r23, 0x00	; 0
     6f0:	60 e0       	ldi	r22, 0x00	; 0
     6f2:	2a f0       	brmi	.+10     	; 0x6fe <__floatsisf+0x6c>
     6f4:	9a 95       	dec	r25
     6f6:	66 0f       	add	r22, r22
     6f8:	77 1f       	adc	r23, r23
     6fa:	88 1f       	adc	r24, r24
     6fc:	da f7       	brpl	.-10     	; 0x6f4 <__floatsisf+0x62>
     6fe:	88 0f       	add	r24, r24
     700:	96 95       	lsr	r25
     702:	87 95       	ror	r24
     704:	97 f9       	bld	r25, 7
     706:	08 95       	ret

00000708 <__fp_inf>:
     708:	97 f9       	bld	r25, 7
     70a:	9f 67       	ori	r25, 0x7F	; 127
     70c:	80 e8       	ldi	r24, 0x80	; 128
     70e:	70 e0       	ldi	r23, 0x00	; 0
     710:	60 e0       	ldi	r22, 0x00	; 0
     712:	08 95       	ret

00000714 <__fp_nan>:
     714:	9f ef       	ldi	r25, 0xFF	; 255
     716:	80 ec       	ldi	r24, 0xC0	; 192
     718:	08 95       	ret

0000071a <__fp_pscA>:
     71a:	00 24       	eor	r0, r0
     71c:	0a 94       	dec	r0
     71e:	16 16       	cp	r1, r22
     720:	17 06       	cpc	r1, r23
     722:	18 06       	cpc	r1, r24
     724:	09 06       	cpc	r0, r25
     726:	08 95       	ret

00000728 <__fp_pscB>:
     728:	00 24       	eor	r0, r0
     72a:	0a 94       	dec	r0
     72c:	12 16       	cp	r1, r18
     72e:	13 06       	cpc	r1, r19
     730:	14 06       	cpc	r1, r20
     732:	05 06       	cpc	r0, r21
     734:	08 95       	ret

00000736 <__fp_round>:
     736:	09 2e       	mov	r0, r25
     738:	03 94       	inc	r0
     73a:	00 0c       	add	r0, r0
     73c:	11 f4       	brne	.+4      	; 0x742 <__fp_round+0xc>
     73e:	88 23       	and	r24, r24
     740:	52 f0       	brmi	.+20     	; 0x756 <__fp_round+0x20>
     742:	bb 0f       	add	r27, r27
     744:	40 f4       	brcc	.+16     	; 0x756 <__fp_round+0x20>
     746:	bf 2b       	or	r27, r31
     748:	11 f4       	brne	.+4      	; 0x74e <__fp_round+0x18>
     74a:	60 ff       	sbrs	r22, 0
     74c:	04 c0       	rjmp	.+8      	; 0x756 <__fp_round+0x20>
     74e:	6f 5f       	subi	r22, 0xFF	; 255
     750:	7f 4f       	sbci	r23, 0xFF	; 255
     752:	8f 4f       	sbci	r24, 0xFF	; 255
     754:	9f 4f       	sbci	r25, 0xFF	; 255
     756:	08 95       	ret

00000758 <__fp_split3>:
     758:	57 fd       	sbrc	r21, 7
     75a:	90 58       	subi	r25, 0x80	; 128
     75c:	44 0f       	add	r20, r20
     75e:	55 1f       	adc	r21, r21
     760:	59 f0       	breq	.+22     	; 0x778 <__fp_splitA+0x10>
     762:	5f 3f       	cpi	r21, 0xFF	; 255
     764:	71 f0       	breq	.+28     	; 0x782 <__fp_splitA+0x1a>
     766:	47 95       	ror	r20

00000768 <__fp_splitA>:
     768:	88 0f       	add	r24, r24
     76a:	97 fb       	bst	r25, 7
     76c:	99 1f       	adc	r25, r25
     76e:	61 f0       	breq	.+24     	; 0x788 <__fp_splitA+0x20>
     770:	9f 3f       	cpi	r25, 0xFF	; 255
     772:	79 f0       	breq	.+30     	; 0x792 <__fp_splitA+0x2a>
     774:	87 95       	ror	r24
     776:	08 95       	ret
     778:	12 16       	cp	r1, r18
     77a:	13 06       	cpc	r1, r19
     77c:	14 06       	cpc	r1, r20
     77e:	55 1f       	adc	r21, r21
     780:	f2 cf       	rjmp	.-28     	; 0x766 <__fp_split3+0xe>
     782:	46 95       	lsr	r20
     784:	f1 df       	rcall	.-30     	; 0x768 <__fp_splitA>
     786:	08 c0       	rjmp	.+16     	; 0x798 <__fp_splitA+0x30>
     788:	16 16       	cp	r1, r22
     78a:	17 06       	cpc	r1, r23
     78c:	18 06       	cpc	r1, r24
     78e:	99 1f       	adc	r25, r25
     790:	f1 cf       	rjmp	.-30     	; 0x774 <__fp_splitA+0xc>
     792:	86 95       	lsr	r24
     794:	71 05       	cpc	r23, r1
     796:	61 05       	cpc	r22, r1
     798:	08 94       	sec
     79a:	08 95       	ret

0000079c <__fp_zero>:
     79c:	e8 94       	clt

0000079e <__fp_szero>:
     79e:	bb 27       	eor	r27, r27
     7a0:	66 27       	eor	r22, r22
     7a2:	77 27       	eor	r23, r23
     7a4:	cb 01       	movw	r24, r22
     7a6:	97 f9       	bld	r25, 7
     7a8:	08 95       	ret

000007aa <__mulsf3>:
     7aa:	0e 94 e8 03 	call	0x7d0	; 0x7d0 <__mulsf3x>
     7ae:	0c 94 9b 03 	jmp	0x736	; 0x736 <__fp_round>
     7b2:	0e 94 8d 03 	call	0x71a	; 0x71a <__fp_pscA>
     7b6:	38 f0       	brcs	.+14     	; 0x7c6 <__mulsf3+0x1c>
     7b8:	0e 94 94 03 	call	0x728	; 0x728 <__fp_pscB>
     7bc:	20 f0       	brcs	.+8      	; 0x7c6 <__mulsf3+0x1c>
     7be:	95 23       	and	r25, r21
     7c0:	11 f0       	breq	.+4      	; 0x7c6 <__mulsf3+0x1c>
     7c2:	0c 94 84 03 	jmp	0x708	; 0x708 <__fp_inf>
     7c6:	0c 94 8a 03 	jmp	0x714	; 0x714 <__fp_nan>
     7ca:	11 24       	eor	r1, r1
     7cc:	0c 94 cf 03 	jmp	0x79e	; 0x79e <__fp_szero>

000007d0 <__mulsf3x>:
     7d0:	0e 94 ac 03 	call	0x758	; 0x758 <__fp_split3>
     7d4:	70 f3       	brcs	.-36     	; 0x7b2 <__mulsf3+0x8>

000007d6 <__mulsf3_pse>:
     7d6:	95 9f       	mul	r25, r21
     7d8:	c1 f3       	breq	.-16     	; 0x7ca <__mulsf3+0x20>
     7da:	95 0f       	add	r25, r21
     7dc:	50 e0       	ldi	r21, 0x00	; 0
     7de:	55 1f       	adc	r21, r21
     7e0:	62 9f       	mul	r22, r18
     7e2:	f0 01       	movw	r30, r0
     7e4:	72 9f       	mul	r23, r18
     7e6:	bb 27       	eor	r27, r27
     7e8:	f0 0d       	add	r31, r0
     7ea:	b1 1d       	adc	r27, r1
     7ec:	63 9f       	mul	r22, r19
     7ee:	aa 27       	eor	r26, r26
     7f0:	f0 0d       	add	r31, r0
     7f2:	b1 1d       	adc	r27, r1
     7f4:	aa 1f       	adc	r26, r26
     7f6:	64 9f       	mul	r22, r20
     7f8:	66 27       	eor	r22, r22
     7fa:	b0 0d       	add	r27, r0
     7fc:	a1 1d       	adc	r26, r1
     7fe:	66 1f       	adc	r22, r22
     800:	82 9f       	mul	r24, r18
     802:	22 27       	eor	r18, r18
     804:	b0 0d       	add	r27, r0
     806:	a1 1d       	adc	r26, r1
     808:	62 1f       	adc	r22, r18
     80a:	73 9f       	mul	r23, r19
     80c:	b0 0d       	add	r27, r0
     80e:	a1 1d       	adc	r26, r1
     810:	62 1f       	adc	r22, r18
     812:	83 9f       	mul	r24, r19
     814:	a0 0d       	add	r26, r0
     816:	61 1d       	adc	r22, r1
     818:	22 1f       	adc	r18, r18
     81a:	74 9f       	mul	r23, r20
     81c:	33 27       	eor	r19, r19
     81e:	a0 0d       	add	r26, r0
     820:	61 1d       	adc	r22, r1
     822:	23 1f       	adc	r18, r19
     824:	84 9f       	mul	r24, r20
     826:	60 0d       	add	r22, r0
     828:	21 1d       	adc	r18, r1
     82a:	82 2f       	mov	r24, r18
     82c:	76 2f       	mov	r23, r22
     82e:	6a 2f       	mov	r22, r26
     830:	11 24       	eor	r1, r1
     832:	9f 57       	subi	r25, 0x7F	; 127
     834:	50 40       	sbci	r21, 0x00	; 0
     836:	9a f0       	brmi	.+38     	; 0x85e <__DATA_REGION_LENGTH__+0x5e>
     838:	f1 f0       	breq	.+60     	; 0x876 <__DATA_REGION_LENGTH__+0x76>
     83a:	88 23       	and	r24, r24
     83c:	4a f0       	brmi	.+18     	; 0x850 <__DATA_REGION_LENGTH__+0x50>
     83e:	ee 0f       	add	r30, r30
     840:	ff 1f       	adc	r31, r31
     842:	bb 1f       	adc	r27, r27
     844:	66 1f       	adc	r22, r22
     846:	77 1f       	adc	r23, r23
     848:	88 1f       	adc	r24, r24
     84a:	91 50       	subi	r25, 0x01	; 1
     84c:	50 40       	sbci	r21, 0x00	; 0
     84e:	a9 f7       	brne	.-22     	; 0x83a <__DATA_REGION_LENGTH__+0x3a>
     850:	9e 3f       	cpi	r25, 0xFE	; 254
     852:	51 05       	cpc	r21, r1
     854:	80 f0       	brcs	.+32     	; 0x876 <__DATA_REGION_LENGTH__+0x76>
     856:	0c 94 84 03 	jmp	0x708	; 0x708 <__fp_inf>
     85a:	0c 94 cf 03 	jmp	0x79e	; 0x79e <__fp_szero>
     85e:	5f 3f       	cpi	r21, 0xFF	; 255
     860:	e4 f3       	brlt	.-8      	; 0x85a <__DATA_REGION_LENGTH__+0x5a>
     862:	98 3e       	cpi	r25, 0xE8	; 232
     864:	d4 f3       	brlt	.-12     	; 0x85a <__DATA_REGION_LENGTH__+0x5a>
     866:	86 95       	lsr	r24
     868:	77 95       	ror	r23
     86a:	67 95       	ror	r22
     86c:	b7 95       	ror	r27
     86e:	f7 95       	ror	r31
     870:	e7 95       	ror	r30
     872:	9f 5f       	subi	r25, 0xFF	; 255
     874:	c1 f7       	brne	.-16     	; 0x866 <__DATA_REGION_LENGTH__+0x66>
     876:	fe 2b       	or	r31, r30
     878:	88 0f       	add	r24, r24
     87a:	91 1d       	adc	r25, r1
     87c:	96 95       	lsr	r25
     87e:	87 95       	ror	r24
     880:	97 f9       	bld	r25, 7
     882:	08 95       	ret

00000884 <vfprintf>:
     884:	a0 e1       	ldi	r26, 0x10	; 16
     886:	b0 e0       	ldi	r27, 0x00	; 0
     888:	e8 e4       	ldi	r30, 0x48	; 72
     88a:	f4 e0       	ldi	r31, 0x04	; 4
     88c:	0c 94 bf 07 	jmp	0xf7e	; 0xf7e <__prologue_saves__>
     890:	7c 01       	movw	r14, r24
     892:	1b 01       	movw	r2, r22
     894:	6a 01       	movw	r12, r20
     896:	fc 01       	movw	r30, r24
     898:	17 82       	std	Z+7, r1	; 0x07
     89a:	16 82       	std	Z+6, r1	; 0x06
     89c:	83 81       	ldd	r24, Z+3	; 0x03
     89e:	81 ff       	sbrs	r24, 1
     8a0:	44 c3       	rjmp	.+1672   	; 0xf2a <__stack+0x62b>
     8a2:	9e 01       	movw	r18, r28
     8a4:	2f 5f       	subi	r18, 0xFF	; 255
     8a6:	3f 4f       	sbci	r19, 0xFF	; 255
     8a8:	39 01       	movw	r6, r18
     8aa:	f7 01       	movw	r30, r14
     8ac:	93 81       	ldd	r25, Z+3	; 0x03
     8ae:	f1 01       	movw	r30, r2
     8b0:	93 fd       	sbrc	r25, 3
     8b2:	85 91       	lpm	r24, Z+
     8b4:	93 ff       	sbrs	r25, 3
     8b6:	81 91       	ld	r24, Z+
     8b8:	1f 01       	movw	r2, r30
     8ba:	88 23       	and	r24, r24
     8bc:	09 f4       	brne	.+2      	; 0x8c0 <vfprintf+0x3c>
     8be:	31 c3       	rjmp	.+1634   	; 0xf22 <__stack+0x623>
     8c0:	85 32       	cpi	r24, 0x25	; 37
     8c2:	39 f4       	brne	.+14     	; 0x8d2 <vfprintf+0x4e>
     8c4:	93 fd       	sbrc	r25, 3
     8c6:	85 91       	lpm	r24, Z+
     8c8:	93 ff       	sbrs	r25, 3
     8ca:	81 91       	ld	r24, Z+
     8cc:	1f 01       	movw	r2, r30
     8ce:	85 32       	cpi	r24, 0x25	; 37
     8d0:	39 f4       	brne	.+14     	; 0x8e0 <vfprintf+0x5c>
     8d2:	b7 01       	movw	r22, r14
     8d4:	90 e0       	ldi	r25, 0x00	; 0
     8d6:	0e 94 e4 08 	call	0x11c8	; 0x11c8 <fputc>
     8da:	56 01       	movw	r10, r12
     8dc:	65 01       	movw	r12, r10
     8de:	e5 cf       	rjmp	.-54     	; 0x8aa <vfprintf+0x26>
     8e0:	10 e0       	ldi	r17, 0x00	; 0
     8e2:	51 2c       	mov	r5, r1
     8e4:	91 2c       	mov	r9, r1
     8e6:	ff e1       	ldi	r31, 0x1F	; 31
     8e8:	f9 15       	cp	r31, r9
     8ea:	d8 f0       	brcs	.+54     	; 0x922 <__stack+0x23>
     8ec:	8b 32       	cpi	r24, 0x2B	; 43
     8ee:	79 f0       	breq	.+30     	; 0x90e <__stack+0xf>
     8f0:	38 f4       	brcc	.+14     	; 0x900 <__stack+0x1>
     8f2:	80 32       	cpi	r24, 0x20	; 32
     8f4:	79 f0       	breq	.+30     	; 0x914 <__stack+0x15>
     8f6:	83 32       	cpi	r24, 0x23	; 35
     8f8:	a1 f4       	brne	.+40     	; 0x922 <__stack+0x23>
     8fa:	f9 2d       	mov	r31, r9
     8fc:	f0 61       	ori	r31, 0x10	; 16
     8fe:	2e c0       	rjmp	.+92     	; 0x95c <__stack+0x5d>
     900:	8d 32       	cpi	r24, 0x2D	; 45
     902:	61 f0       	breq	.+24     	; 0x91c <__stack+0x1d>
     904:	80 33       	cpi	r24, 0x30	; 48
     906:	69 f4       	brne	.+26     	; 0x922 <__stack+0x23>
     908:	29 2d       	mov	r18, r9
     90a:	21 60       	ori	r18, 0x01	; 1
     90c:	2d c0       	rjmp	.+90     	; 0x968 <__stack+0x69>
     90e:	39 2d       	mov	r19, r9
     910:	32 60       	ori	r19, 0x02	; 2
     912:	93 2e       	mov	r9, r19
     914:	89 2d       	mov	r24, r9
     916:	84 60       	ori	r24, 0x04	; 4
     918:	98 2e       	mov	r9, r24
     91a:	2a c0       	rjmp	.+84     	; 0x970 <__stack+0x71>
     91c:	e9 2d       	mov	r30, r9
     91e:	e8 60       	ori	r30, 0x08	; 8
     920:	15 c0       	rjmp	.+42     	; 0x94c <__stack+0x4d>
     922:	97 fc       	sbrc	r9, 7
     924:	2d c0       	rjmp	.+90     	; 0x980 <__stack+0x81>
     926:	20 ed       	ldi	r18, 0xD0	; 208
     928:	28 0f       	add	r18, r24
     92a:	2a 30       	cpi	r18, 0x0A	; 10
     92c:	88 f4       	brcc	.+34     	; 0x950 <__stack+0x51>
     92e:	96 fe       	sbrs	r9, 6
     930:	06 c0       	rjmp	.+12     	; 0x93e <__stack+0x3f>
     932:	3a e0       	ldi	r19, 0x0A	; 10
     934:	13 9f       	mul	r17, r19
     936:	20 0d       	add	r18, r0
     938:	11 24       	eor	r1, r1
     93a:	12 2f       	mov	r17, r18
     93c:	19 c0       	rjmp	.+50     	; 0x970 <__stack+0x71>
     93e:	8a e0       	ldi	r24, 0x0A	; 10
     940:	58 9e       	mul	r5, r24
     942:	20 0d       	add	r18, r0
     944:	11 24       	eor	r1, r1
     946:	52 2e       	mov	r5, r18
     948:	e9 2d       	mov	r30, r9
     94a:	e0 62       	ori	r30, 0x20	; 32
     94c:	9e 2e       	mov	r9, r30
     94e:	10 c0       	rjmp	.+32     	; 0x970 <__stack+0x71>
     950:	8e 32       	cpi	r24, 0x2E	; 46
     952:	31 f4       	brne	.+12     	; 0x960 <__stack+0x61>
     954:	96 fc       	sbrc	r9, 6
     956:	e5 c2       	rjmp	.+1482   	; 0xf22 <__stack+0x623>
     958:	f9 2d       	mov	r31, r9
     95a:	f0 64       	ori	r31, 0x40	; 64
     95c:	9f 2e       	mov	r9, r31
     95e:	08 c0       	rjmp	.+16     	; 0x970 <__stack+0x71>
     960:	8c 36       	cpi	r24, 0x6C	; 108
     962:	21 f4       	brne	.+8      	; 0x96c <__stack+0x6d>
     964:	29 2d       	mov	r18, r9
     966:	20 68       	ori	r18, 0x80	; 128
     968:	92 2e       	mov	r9, r18
     96a:	02 c0       	rjmp	.+4      	; 0x970 <__stack+0x71>
     96c:	88 36       	cpi	r24, 0x68	; 104
     96e:	41 f4       	brne	.+16     	; 0x980 <__stack+0x81>
     970:	f1 01       	movw	r30, r2
     972:	93 fd       	sbrc	r25, 3
     974:	85 91       	lpm	r24, Z+
     976:	93 ff       	sbrs	r25, 3
     978:	81 91       	ld	r24, Z+
     97a:	1f 01       	movw	r2, r30
     97c:	81 11       	cpse	r24, r1
     97e:	b3 cf       	rjmp	.-154    	; 0x8e6 <vfprintf+0x62>
     980:	9b eb       	ldi	r25, 0xBB	; 187
     982:	98 0f       	add	r25, r24
     984:	93 30       	cpi	r25, 0x03	; 3
     986:	20 f4       	brcc	.+8      	; 0x990 <__stack+0x91>
     988:	99 2d       	mov	r25, r9
     98a:	90 61       	ori	r25, 0x10	; 16
     98c:	80 5e       	subi	r24, 0xE0	; 224
     98e:	07 c0       	rjmp	.+14     	; 0x99e <__stack+0x9f>
     990:	9b e9       	ldi	r25, 0x9B	; 155
     992:	98 0f       	add	r25, r24
     994:	93 30       	cpi	r25, 0x03	; 3
     996:	08 f0       	brcs	.+2      	; 0x99a <__stack+0x9b>
     998:	66 c1       	rjmp	.+716    	; 0xc66 <__stack+0x367>
     99a:	99 2d       	mov	r25, r9
     99c:	9f 7e       	andi	r25, 0xEF	; 239
     99e:	96 ff       	sbrs	r25, 6
     9a0:	16 e0       	ldi	r17, 0x06	; 6
     9a2:	9f 73       	andi	r25, 0x3F	; 63
     9a4:	99 2e       	mov	r9, r25
     9a6:	85 36       	cpi	r24, 0x65	; 101
     9a8:	19 f4       	brne	.+6      	; 0x9b0 <__stack+0xb1>
     9aa:	90 64       	ori	r25, 0x40	; 64
     9ac:	99 2e       	mov	r9, r25
     9ae:	08 c0       	rjmp	.+16     	; 0x9c0 <__stack+0xc1>
     9b0:	86 36       	cpi	r24, 0x66	; 102
     9b2:	21 f4       	brne	.+8      	; 0x9bc <__stack+0xbd>
     9b4:	39 2f       	mov	r19, r25
     9b6:	30 68       	ori	r19, 0x80	; 128
     9b8:	93 2e       	mov	r9, r19
     9ba:	02 c0       	rjmp	.+4      	; 0x9c0 <__stack+0xc1>
     9bc:	11 11       	cpse	r17, r1
     9be:	11 50       	subi	r17, 0x01	; 1
     9c0:	97 fe       	sbrs	r9, 7
     9c2:	07 c0       	rjmp	.+14     	; 0x9d2 <__stack+0xd3>
     9c4:	1c 33       	cpi	r17, 0x3C	; 60
     9c6:	50 f4       	brcc	.+20     	; 0x9dc <__stack+0xdd>
     9c8:	44 24       	eor	r4, r4
     9ca:	43 94       	inc	r4
     9cc:	41 0e       	add	r4, r17
     9ce:	27 e0       	ldi	r18, 0x07	; 7
     9d0:	0b c0       	rjmp	.+22     	; 0x9e8 <__stack+0xe9>
     9d2:	18 30       	cpi	r17, 0x08	; 8
     9d4:	38 f0       	brcs	.+14     	; 0x9e4 <__stack+0xe5>
     9d6:	27 e0       	ldi	r18, 0x07	; 7
     9d8:	17 e0       	ldi	r17, 0x07	; 7
     9da:	05 c0       	rjmp	.+10     	; 0x9e6 <__stack+0xe7>
     9dc:	27 e0       	ldi	r18, 0x07	; 7
     9de:	9c e3       	ldi	r25, 0x3C	; 60
     9e0:	49 2e       	mov	r4, r25
     9e2:	02 c0       	rjmp	.+4      	; 0x9e8 <__stack+0xe9>
     9e4:	21 2f       	mov	r18, r17
     9e6:	41 2c       	mov	r4, r1
     9e8:	56 01       	movw	r10, r12
     9ea:	84 e0       	ldi	r24, 0x04	; 4
     9ec:	a8 0e       	add	r10, r24
     9ee:	b1 1c       	adc	r11, r1
     9f0:	f6 01       	movw	r30, r12
     9f2:	60 81       	ld	r22, Z
     9f4:	71 81       	ldd	r23, Z+1	; 0x01
     9f6:	82 81       	ldd	r24, Z+2	; 0x02
     9f8:	93 81       	ldd	r25, Z+3	; 0x03
     9fa:	04 2d       	mov	r16, r4
     9fc:	a3 01       	movw	r20, r6
     9fe:	0e 94 f6 07 	call	0xfec	; 0xfec <__ftoa_engine>
     a02:	6c 01       	movw	r12, r24
     a04:	f9 81       	ldd	r31, Y+1	; 0x01
     a06:	fc 87       	std	Y+12, r31	; 0x0c
     a08:	f0 ff       	sbrs	r31, 0
     a0a:	02 c0       	rjmp	.+4      	; 0xa10 <__stack+0x111>
     a0c:	f3 ff       	sbrs	r31, 3
     a0e:	06 c0       	rjmp	.+12     	; 0xa1c <__stack+0x11d>
     a10:	91 fc       	sbrc	r9, 1
     a12:	06 c0       	rjmp	.+12     	; 0xa20 <__stack+0x121>
     a14:	92 fe       	sbrs	r9, 2
     a16:	06 c0       	rjmp	.+12     	; 0xa24 <__stack+0x125>
     a18:	00 e2       	ldi	r16, 0x20	; 32
     a1a:	05 c0       	rjmp	.+10     	; 0xa26 <__stack+0x127>
     a1c:	0d e2       	ldi	r16, 0x2D	; 45
     a1e:	03 c0       	rjmp	.+6      	; 0xa26 <__stack+0x127>
     a20:	0b e2       	ldi	r16, 0x2B	; 43
     a22:	01 c0       	rjmp	.+2      	; 0xa26 <__stack+0x127>
     a24:	00 e0       	ldi	r16, 0x00	; 0
     a26:	8c 85       	ldd	r24, Y+12	; 0x0c
     a28:	8c 70       	andi	r24, 0x0C	; 12
     a2a:	19 f0       	breq	.+6      	; 0xa32 <__stack+0x133>
     a2c:	01 11       	cpse	r16, r1
     a2e:	5a c2       	rjmp	.+1204   	; 0xee4 <__stack+0x5e5>
     a30:	9b c2       	rjmp	.+1334   	; 0xf68 <__stack+0x669>
     a32:	97 fe       	sbrs	r9, 7
     a34:	10 c0       	rjmp	.+32     	; 0xa56 <__stack+0x157>
     a36:	4c 0c       	add	r4, r12
     a38:	fc 85       	ldd	r31, Y+12	; 0x0c
     a3a:	f4 ff       	sbrs	r31, 4
     a3c:	04 c0       	rjmp	.+8      	; 0xa46 <__stack+0x147>
     a3e:	8a 81       	ldd	r24, Y+2	; 0x02
     a40:	81 33       	cpi	r24, 0x31	; 49
     a42:	09 f4       	brne	.+2      	; 0xa46 <__stack+0x147>
     a44:	4a 94       	dec	r4
     a46:	14 14       	cp	r1, r4
     a48:	74 f5       	brge	.+92     	; 0xaa6 <__stack+0x1a7>
     a4a:	28 e0       	ldi	r18, 0x08	; 8
     a4c:	24 15       	cp	r18, r4
     a4e:	78 f5       	brcc	.+94     	; 0xaae <__stack+0x1af>
     a50:	88 e0       	ldi	r24, 0x08	; 8
     a52:	48 2e       	mov	r4, r24
     a54:	2c c0       	rjmp	.+88     	; 0xaae <__stack+0x1af>
     a56:	96 fc       	sbrc	r9, 6
     a58:	2a c0       	rjmp	.+84     	; 0xaae <__stack+0x1af>
     a5a:	81 2f       	mov	r24, r17
     a5c:	90 e0       	ldi	r25, 0x00	; 0
     a5e:	8c 15       	cp	r24, r12
     a60:	9d 05       	cpc	r25, r13
     a62:	9c f0       	brlt	.+38     	; 0xa8a <__stack+0x18b>
     a64:	3c ef       	ldi	r19, 0xFC	; 252
     a66:	c3 16       	cp	r12, r19
     a68:	3f ef       	ldi	r19, 0xFF	; 255
     a6a:	d3 06       	cpc	r13, r19
     a6c:	74 f0       	brlt	.+28     	; 0xa8a <__stack+0x18b>
     a6e:	89 2d       	mov	r24, r9
     a70:	80 68       	ori	r24, 0x80	; 128
     a72:	98 2e       	mov	r9, r24
     a74:	0a c0       	rjmp	.+20     	; 0xa8a <__stack+0x18b>
     a76:	e2 e0       	ldi	r30, 0x02	; 2
     a78:	f0 e0       	ldi	r31, 0x00	; 0
     a7a:	ec 0f       	add	r30, r28
     a7c:	fd 1f       	adc	r31, r29
     a7e:	e1 0f       	add	r30, r17
     a80:	f1 1d       	adc	r31, r1
     a82:	80 81       	ld	r24, Z
     a84:	80 33       	cpi	r24, 0x30	; 48
     a86:	19 f4       	brne	.+6      	; 0xa8e <__stack+0x18f>
     a88:	11 50       	subi	r17, 0x01	; 1
     a8a:	11 11       	cpse	r17, r1
     a8c:	f4 cf       	rjmp	.-24     	; 0xa76 <__stack+0x177>
     a8e:	97 fe       	sbrs	r9, 7
     a90:	0e c0       	rjmp	.+28     	; 0xaae <__stack+0x1af>
     a92:	44 24       	eor	r4, r4
     a94:	43 94       	inc	r4
     a96:	41 0e       	add	r4, r17
     a98:	81 2f       	mov	r24, r17
     a9a:	90 e0       	ldi	r25, 0x00	; 0
     a9c:	c8 16       	cp	r12, r24
     a9e:	d9 06       	cpc	r13, r25
     aa0:	2c f4       	brge	.+10     	; 0xaac <__stack+0x1ad>
     aa2:	1c 19       	sub	r17, r12
     aa4:	04 c0       	rjmp	.+8      	; 0xaae <__stack+0x1af>
     aa6:	44 24       	eor	r4, r4
     aa8:	43 94       	inc	r4
     aaa:	01 c0       	rjmp	.+2      	; 0xaae <__stack+0x1af>
     aac:	10 e0       	ldi	r17, 0x00	; 0
     aae:	97 fe       	sbrs	r9, 7
     ab0:	06 c0       	rjmp	.+12     	; 0xabe <__stack+0x1bf>
     ab2:	1c 14       	cp	r1, r12
     ab4:	1d 04       	cpc	r1, r13
     ab6:	34 f4       	brge	.+12     	; 0xac4 <__stack+0x1c5>
     ab8:	c6 01       	movw	r24, r12
     aba:	01 96       	adiw	r24, 0x01	; 1
     abc:	05 c0       	rjmp	.+10     	; 0xac8 <__stack+0x1c9>
     abe:	85 e0       	ldi	r24, 0x05	; 5
     ac0:	90 e0       	ldi	r25, 0x00	; 0
     ac2:	02 c0       	rjmp	.+4      	; 0xac8 <__stack+0x1c9>
     ac4:	81 e0       	ldi	r24, 0x01	; 1
     ac6:	90 e0       	ldi	r25, 0x00	; 0
     ac8:	01 11       	cpse	r16, r1
     aca:	01 96       	adiw	r24, 0x01	; 1
     acc:	11 23       	and	r17, r17
     ace:	31 f0       	breq	.+12     	; 0xadc <__stack+0x1dd>
     ad0:	21 2f       	mov	r18, r17
     ad2:	30 e0       	ldi	r19, 0x00	; 0
     ad4:	2f 5f       	subi	r18, 0xFF	; 255
     ad6:	3f 4f       	sbci	r19, 0xFF	; 255
     ad8:	82 0f       	add	r24, r18
     ada:	93 1f       	adc	r25, r19
     adc:	25 2d       	mov	r18, r5
     ade:	30 e0       	ldi	r19, 0x00	; 0
     ae0:	82 17       	cp	r24, r18
     ae2:	93 07       	cpc	r25, r19
     ae4:	14 f4       	brge	.+4      	; 0xaea <__stack+0x1eb>
     ae6:	58 1a       	sub	r5, r24
     ae8:	01 c0       	rjmp	.+2      	; 0xaec <__stack+0x1ed>
     aea:	51 2c       	mov	r5, r1
     aec:	89 2d       	mov	r24, r9
     aee:	89 70       	andi	r24, 0x09	; 9
     af0:	49 f4       	brne	.+18     	; 0xb04 <__stack+0x205>
     af2:	55 20       	and	r5, r5
     af4:	39 f0       	breq	.+14     	; 0xb04 <__stack+0x205>
     af6:	b7 01       	movw	r22, r14
     af8:	80 e2       	ldi	r24, 0x20	; 32
     afa:	90 e0       	ldi	r25, 0x00	; 0
     afc:	0e 94 e4 08 	call	0x11c8	; 0x11c8 <fputc>
     b00:	5a 94       	dec	r5
     b02:	f7 cf       	rjmp	.-18     	; 0xaf2 <__stack+0x1f3>
     b04:	00 23       	and	r16, r16
     b06:	29 f0       	breq	.+10     	; 0xb12 <__stack+0x213>
     b08:	b7 01       	movw	r22, r14
     b0a:	80 2f       	mov	r24, r16
     b0c:	90 e0       	ldi	r25, 0x00	; 0
     b0e:	0e 94 e4 08 	call	0x11c8	; 0x11c8 <fputc>
     b12:	93 fc       	sbrc	r9, 3
     b14:	09 c0       	rjmp	.+18     	; 0xb28 <__stack+0x229>
     b16:	55 20       	and	r5, r5
     b18:	39 f0       	breq	.+14     	; 0xb28 <__stack+0x229>
     b1a:	b7 01       	movw	r22, r14
     b1c:	80 e3       	ldi	r24, 0x30	; 48
     b1e:	90 e0       	ldi	r25, 0x00	; 0
     b20:	0e 94 e4 08 	call	0x11c8	; 0x11c8 <fputc>
     b24:	5a 94       	dec	r5
     b26:	f7 cf       	rjmp	.-18     	; 0xb16 <__stack+0x217>
     b28:	97 fe       	sbrs	r9, 7
     b2a:	4c c0       	rjmp	.+152    	; 0xbc4 <__stack+0x2c5>
     b2c:	46 01       	movw	r8, r12
     b2e:	d7 fe       	sbrs	r13, 7
     b30:	02 c0       	rjmp	.+4      	; 0xb36 <__stack+0x237>
     b32:	81 2c       	mov	r8, r1
     b34:	91 2c       	mov	r9, r1
     b36:	c6 01       	movw	r24, r12
     b38:	88 19       	sub	r24, r8
     b3a:	99 09       	sbc	r25, r9
     b3c:	f3 01       	movw	r30, r6
     b3e:	e8 0f       	add	r30, r24
     b40:	f9 1f       	adc	r31, r25
     b42:	fe 87       	std	Y+14, r31	; 0x0e
     b44:	ed 87       	std	Y+13, r30	; 0x0d
     b46:	96 01       	movw	r18, r12
     b48:	24 19       	sub	r18, r4
     b4a:	31 09       	sbc	r19, r1
     b4c:	38 8b       	std	Y+16, r19	; 0x10
     b4e:	2f 87       	std	Y+15, r18	; 0x0f
     b50:	01 2f       	mov	r16, r17
     b52:	10 e0       	ldi	r17, 0x00	; 0
     b54:	11 95       	neg	r17
     b56:	01 95       	neg	r16
     b58:	11 09       	sbc	r17, r1
     b5a:	3f ef       	ldi	r19, 0xFF	; 255
     b5c:	83 16       	cp	r8, r19
     b5e:	93 06       	cpc	r9, r19
     b60:	29 f4       	brne	.+10     	; 0xb6c <__stack+0x26d>
     b62:	b7 01       	movw	r22, r14
     b64:	8e e2       	ldi	r24, 0x2E	; 46
     b66:	90 e0       	ldi	r25, 0x00	; 0
     b68:	0e 94 e4 08 	call	0x11c8	; 0x11c8 <fputc>
     b6c:	c8 14       	cp	r12, r8
     b6e:	d9 04       	cpc	r13, r9
     b70:	4c f0       	brlt	.+18     	; 0xb84 <__stack+0x285>
     b72:	8f 85       	ldd	r24, Y+15	; 0x0f
     b74:	98 89       	ldd	r25, Y+16	; 0x10
     b76:	88 15       	cp	r24, r8
     b78:	99 05       	cpc	r25, r9
     b7a:	24 f4       	brge	.+8      	; 0xb84 <__stack+0x285>
     b7c:	ed 85       	ldd	r30, Y+13	; 0x0d
     b7e:	fe 85       	ldd	r31, Y+14	; 0x0e
     b80:	81 81       	ldd	r24, Z+1	; 0x01
     b82:	01 c0       	rjmp	.+2      	; 0xb86 <__stack+0x287>
     b84:	80 e3       	ldi	r24, 0x30	; 48
     b86:	f1 e0       	ldi	r31, 0x01	; 1
     b88:	8f 1a       	sub	r8, r31
     b8a:	91 08       	sbc	r9, r1
     b8c:	2d 85       	ldd	r18, Y+13	; 0x0d
     b8e:	3e 85       	ldd	r19, Y+14	; 0x0e
     b90:	2f 5f       	subi	r18, 0xFF	; 255
     b92:	3f 4f       	sbci	r19, 0xFF	; 255
     b94:	3e 87       	std	Y+14, r19	; 0x0e
     b96:	2d 87       	std	Y+13, r18	; 0x0d
     b98:	80 16       	cp	r8, r16
     b9a:	91 06       	cpc	r9, r17
     b9c:	2c f0       	brlt	.+10     	; 0xba8 <__stack+0x2a9>
     b9e:	b7 01       	movw	r22, r14
     ba0:	90 e0       	ldi	r25, 0x00	; 0
     ba2:	0e 94 e4 08 	call	0x11c8	; 0x11c8 <fputc>
     ba6:	d9 cf       	rjmp	.-78     	; 0xb5a <__stack+0x25b>
     ba8:	c8 14       	cp	r12, r8
     baa:	d9 04       	cpc	r13, r9
     bac:	41 f4       	brne	.+16     	; 0xbbe <__stack+0x2bf>
     bae:	9a 81       	ldd	r25, Y+2	; 0x02
     bb0:	96 33       	cpi	r25, 0x36	; 54
     bb2:	20 f4       	brcc	.+8      	; 0xbbc <__stack+0x2bd>
     bb4:	95 33       	cpi	r25, 0x35	; 53
     bb6:	19 f4       	brne	.+6      	; 0xbbe <__stack+0x2bf>
     bb8:	3c 85       	ldd	r19, Y+12	; 0x0c
     bba:	34 ff       	sbrs	r19, 4
     bbc:	81 e3       	ldi	r24, 0x31	; 49
     bbe:	b7 01       	movw	r22, r14
     bc0:	90 e0       	ldi	r25, 0x00	; 0
     bc2:	4e c0       	rjmp	.+156    	; 0xc60 <__stack+0x361>
     bc4:	8a 81       	ldd	r24, Y+2	; 0x02
     bc6:	81 33       	cpi	r24, 0x31	; 49
     bc8:	19 f0       	breq	.+6      	; 0xbd0 <__stack+0x2d1>
     bca:	9c 85       	ldd	r25, Y+12	; 0x0c
     bcc:	9f 7e       	andi	r25, 0xEF	; 239
     bce:	9c 87       	std	Y+12, r25	; 0x0c
     bd0:	b7 01       	movw	r22, r14
     bd2:	90 e0       	ldi	r25, 0x00	; 0
     bd4:	0e 94 e4 08 	call	0x11c8	; 0x11c8 <fputc>
     bd8:	11 11       	cpse	r17, r1
     bda:	05 c0       	rjmp	.+10     	; 0xbe6 <__stack+0x2e7>
     bdc:	94 fc       	sbrc	r9, 4
     bde:	18 c0       	rjmp	.+48     	; 0xc10 <__stack+0x311>
     be0:	85 e6       	ldi	r24, 0x65	; 101
     be2:	90 e0       	ldi	r25, 0x00	; 0
     be4:	17 c0       	rjmp	.+46     	; 0xc14 <__stack+0x315>
     be6:	b7 01       	movw	r22, r14
     be8:	8e e2       	ldi	r24, 0x2E	; 46
     bea:	90 e0       	ldi	r25, 0x00	; 0
     bec:	0e 94 e4 08 	call	0x11c8	; 0x11c8 <fputc>
     bf0:	1e 5f       	subi	r17, 0xFE	; 254
     bf2:	82 e0       	ldi	r24, 0x02	; 2
     bf4:	01 e0       	ldi	r16, 0x01	; 1
     bf6:	08 0f       	add	r16, r24
     bf8:	f3 01       	movw	r30, r6
     bfa:	e8 0f       	add	r30, r24
     bfc:	f1 1d       	adc	r31, r1
     bfe:	80 81       	ld	r24, Z
     c00:	b7 01       	movw	r22, r14
     c02:	90 e0       	ldi	r25, 0x00	; 0
     c04:	0e 94 e4 08 	call	0x11c8	; 0x11c8 <fputc>
     c08:	80 2f       	mov	r24, r16
     c0a:	01 13       	cpse	r16, r17
     c0c:	f3 cf       	rjmp	.-26     	; 0xbf4 <__stack+0x2f5>
     c0e:	e6 cf       	rjmp	.-52     	; 0xbdc <__stack+0x2dd>
     c10:	85 e4       	ldi	r24, 0x45	; 69
     c12:	90 e0       	ldi	r25, 0x00	; 0
     c14:	b7 01       	movw	r22, r14
     c16:	0e 94 e4 08 	call	0x11c8	; 0x11c8 <fputc>
     c1a:	d7 fc       	sbrc	r13, 7
     c1c:	06 c0       	rjmp	.+12     	; 0xc2a <__stack+0x32b>
     c1e:	c1 14       	cp	r12, r1
     c20:	d1 04       	cpc	r13, r1
     c22:	41 f4       	brne	.+16     	; 0xc34 <__stack+0x335>
     c24:	ec 85       	ldd	r30, Y+12	; 0x0c
     c26:	e4 ff       	sbrs	r30, 4
     c28:	05 c0       	rjmp	.+10     	; 0xc34 <__stack+0x335>
     c2a:	d1 94       	neg	r13
     c2c:	c1 94       	neg	r12
     c2e:	d1 08       	sbc	r13, r1
     c30:	8d e2       	ldi	r24, 0x2D	; 45
     c32:	01 c0       	rjmp	.+2      	; 0xc36 <__stack+0x337>
     c34:	8b e2       	ldi	r24, 0x2B	; 43
     c36:	b7 01       	movw	r22, r14
     c38:	90 e0       	ldi	r25, 0x00	; 0
     c3a:	0e 94 e4 08 	call	0x11c8	; 0x11c8 <fputc>
     c3e:	80 e3       	ldi	r24, 0x30	; 48
     c40:	2a e0       	ldi	r18, 0x0A	; 10
     c42:	c2 16       	cp	r12, r18
     c44:	d1 04       	cpc	r13, r1
     c46:	2c f0       	brlt	.+10     	; 0xc52 <__stack+0x353>
     c48:	8f 5f       	subi	r24, 0xFF	; 255
     c4a:	fa e0       	ldi	r31, 0x0A	; 10
     c4c:	cf 1a       	sub	r12, r31
     c4e:	d1 08       	sbc	r13, r1
     c50:	f7 cf       	rjmp	.-18     	; 0xc40 <__stack+0x341>
     c52:	b7 01       	movw	r22, r14
     c54:	90 e0       	ldi	r25, 0x00	; 0
     c56:	0e 94 e4 08 	call	0x11c8	; 0x11c8 <fputc>
     c5a:	b7 01       	movw	r22, r14
     c5c:	c6 01       	movw	r24, r12
     c5e:	c0 96       	adiw	r24, 0x30	; 48
     c60:	0e 94 e4 08 	call	0x11c8	; 0x11c8 <fputc>
     c64:	54 c1       	rjmp	.+680    	; 0xf0e <__stack+0x60f>
     c66:	83 36       	cpi	r24, 0x63	; 99
     c68:	31 f0       	breq	.+12     	; 0xc76 <__stack+0x377>
     c6a:	83 37       	cpi	r24, 0x73	; 115
     c6c:	79 f0       	breq	.+30     	; 0xc8c <__stack+0x38d>
     c6e:	83 35       	cpi	r24, 0x53	; 83
     c70:	09 f0       	breq	.+2      	; 0xc74 <__stack+0x375>
     c72:	56 c0       	rjmp	.+172    	; 0xd20 <__stack+0x421>
     c74:	20 c0       	rjmp	.+64     	; 0xcb6 <__stack+0x3b7>
     c76:	56 01       	movw	r10, r12
     c78:	32 e0       	ldi	r19, 0x02	; 2
     c7a:	a3 0e       	add	r10, r19
     c7c:	b1 1c       	adc	r11, r1
     c7e:	f6 01       	movw	r30, r12
     c80:	80 81       	ld	r24, Z
     c82:	89 83       	std	Y+1, r24	; 0x01
     c84:	01 e0       	ldi	r16, 0x01	; 1
     c86:	10 e0       	ldi	r17, 0x00	; 0
     c88:	63 01       	movw	r12, r6
     c8a:	12 c0       	rjmp	.+36     	; 0xcb0 <__stack+0x3b1>
     c8c:	56 01       	movw	r10, r12
     c8e:	f2 e0       	ldi	r31, 0x02	; 2
     c90:	af 0e       	add	r10, r31
     c92:	b1 1c       	adc	r11, r1
     c94:	f6 01       	movw	r30, r12
     c96:	c0 80       	ld	r12, Z
     c98:	d1 80       	ldd	r13, Z+1	; 0x01
     c9a:	96 fe       	sbrs	r9, 6
     c9c:	03 c0       	rjmp	.+6      	; 0xca4 <__stack+0x3a5>
     c9e:	61 2f       	mov	r22, r17
     ca0:	70 e0       	ldi	r23, 0x00	; 0
     ca2:	02 c0       	rjmp	.+4      	; 0xca8 <__stack+0x3a9>
     ca4:	6f ef       	ldi	r22, 0xFF	; 255
     ca6:	7f ef       	ldi	r23, 0xFF	; 255
     ca8:	c6 01       	movw	r24, r12
     caa:	0e 94 d9 08 	call	0x11b2	; 0x11b2 <strnlen>
     cae:	8c 01       	movw	r16, r24
     cb0:	f9 2d       	mov	r31, r9
     cb2:	ff 77       	andi	r31, 0x7F	; 127
     cb4:	14 c0       	rjmp	.+40     	; 0xcde <__stack+0x3df>
     cb6:	56 01       	movw	r10, r12
     cb8:	22 e0       	ldi	r18, 0x02	; 2
     cba:	a2 0e       	add	r10, r18
     cbc:	b1 1c       	adc	r11, r1
     cbe:	f6 01       	movw	r30, r12
     cc0:	c0 80       	ld	r12, Z
     cc2:	d1 80       	ldd	r13, Z+1	; 0x01
     cc4:	96 fe       	sbrs	r9, 6
     cc6:	03 c0       	rjmp	.+6      	; 0xcce <__stack+0x3cf>
     cc8:	61 2f       	mov	r22, r17
     cca:	70 e0       	ldi	r23, 0x00	; 0
     ccc:	02 c0       	rjmp	.+4      	; 0xcd2 <__stack+0x3d3>
     cce:	6f ef       	ldi	r22, 0xFF	; 255
     cd0:	7f ef       	ldi	r23, 0xFF	; 255
     cd2:	c6 01       	movw	r24, r12
     cd4:	0e 94 ce 08 	call	0x119c	; 0x119c <strnlen_P>
     cd8:	8c 01       	movw	r16, r24
     cda:	f9 2d       	mov	r31, r9
     cdc:	f0 68       	ori	r31, 0x80	; 128
     cde:	9f 2e       	mov	r9, r31
     ce0:	f3 fd       	sbrc	r31, 3
     ce2:	1a c0       	rjmp	.+52     	; 0xd18 <__stack+0x419>
     ce4:	85 2d       	mov	r24, r5
     ce6:	90 e0       	ldi	r25, 0x00	; 0
     ce8:	08 17       	cp	r16, r24
     cea:	19 07       	cpc	r17, r25
     cec:	a8 f4       	brcc	.+42     	; 0xd18 <__stack+0x419>
     cee:	b7 01       	movw	r22, r14
     cf0:	80 e2       	ldi	r24, 0x20	; 32
     cf2:	90 e0       	ldi	r25, 0x00	; 0
     cf4:	0e 94 e4 08 	call	0x11c8	; 0x11c8 <fputc>
     cf8:	5a 94       	dec	r5
     cfa:	f4 cf       	rjmp	.-24     	; 0xce4 <__stack+0x3e5>
     cfc:	f6 01       	movw	r30, r12
     cfe:	97 fc       	sbrc	r9, 7
     d00:	85 91       	lpm	r24, Z+
     d02:	97 fe       	sbrs	r9, 7
     d04:	81 91       	ld	r24, Z+
     d06:	6f 01       	movw	r12, r30
     d08:	b7 01       	movw	r22, r14
     d0a:	90 e0       	ldi	r25, 0x00	; 0
     d0c:	0e 94 e4 08 	call	0x11c8	; 0x11c8 <fputc>
     d10:	51 10       	cpse	r5, r1
     d12:	5a 94       	dec	r5
     d14:	01 50       	subi	r16, 0x01	; 1
     d16:	11 09       	sbc	r17, r1
     d18:	01 15       	cp	r16, r1
     d1a:	11 05       	cpc	r17, r1
     d1c:	79 f7       	brne	.-34     	; 0xcfc <__stack+0x3fd>
     d1e:	f7 c0       	rjmp	.+494    	; 0xf0e <__stack+0x60f>
     d20:	84 36       	cpi	r24, 0x64	; 100
     d22:	11 f0       	breq	.+4      	; 0xd28 <__stack+0x429>
     d24:	89 36       	cpi	r24, 0x69	; 105
     d26:	61 f5       	brne	.+88     	; 0xd80 <__stack+0x481>
     d28:	56 01       	movw	r10, r12
     d2a:	97 fe       	sbrs	r9, 7
     d2c:	09 c0       	rjmp	.+18     	; 0xd40 <__stack+0x441>
     d2e:	24 e0       	ldi	r18, 0x04	; 4
     d30:	a2 0e       	add	r10, r18
     d32:	b1 1c       	adc	r11, r1
     d34:	f6 01       	movw	r30, r12
     d36:	60 81       	ld	r22, Z
     d38:	71 81       	ldd	r23, Z+1	; 0x01
     d3a:	82 81       	ldd	r24, Z+2	; 0x02
     d3c:	93 81       	ldd	r25, Z+3	; 0x03
     d3e:	0a c0       	rjmp	.+20     	; 0xd54 <__stack+0x455>
     d40:	f2 e0       	ldi	r31, 0x02	; 2
     d42:	af 0e       	add	r10, r31
     d44:	b1 1c       	adc	r11, r1
     d46:	f6 01       	movw	r30, r12
     d48:	60 81       	ld	r22, Z
     d4a:	71 81       	ldd	r23, Z+1	; 0x01
     d4c:	07 2e       	mov	r0, r23
     d4e:	00 0c       	add	r0, r0
     d50:	88 0b       	sbc	r24, r24
     d52:	99 0b       	sbc	r25, r25
     d54:	f9 2d       	mov	r31, r9
     d56:	ff 76       	andi	r31, 0x6F	; 111
     d58:	9f 2e       	mov	r9, r31
     d5a:	97 ff       	sbrs	r25, 7
     d5c:	09 c0       	rjmp	.+18     	; 0xd70 <__stack+0x471>
     d5e:	90 95       	com	r25
     d60:	80 95       	com	r24
     d62:	70 95       	com	r23
     d64:	61 95       	neg	r22
     d66:	7f 4f       	sbci	r23, 0xFF	; 255
     d68:	8f 4f       	sbci	r24, 0xFF	; 255
     d6a:	9f 4f       	sbci	r25, 0xFF	; 255
     d6c:	f0 68       	ori	r31, 0x80	; 128
     d6e:	9f 2e       	mov	r9, r31
     d70:	2a e0       	ldi	r18, 0x0A	; 10
     d72:	30 e0       	ldi	r19, 0x00	; 0
     d74:	a3 01       	movw	r20, r6
     d76:	0e 94 66 09 	call	0x12cc	; 0x12cc <__ultoa_invert>
     d7a:	c8 2e       	mov	r12, r24
     d7c:	c6 18       	sub	r12, r6
     d7e:	3f c0       	rjmp	.+126    	; 0xdfe <__stack+0x4ff>
     d80:	09 2d       	mov	r16, r9
     d82:	85 37       	cpi	r24, 0x75	; 117
     d84:	21 f4       	brne	.+8      	; 0xd8e <__stack+0x48f>
     d86:	0f 7e       	andi	r16, 0xEF	; 239
     d88:	2a e0       	ldi	r18, 0x0A	; 10
     d8a:	30 e0       	ldi	r19, 0x00	; 0
     d8c:	1d c0       	rjmp	.+58     	; 0xdc8 <__stack+0x4c9>
     d8e:	09 7f       	andi	r16, 0xF9	; 249
     d90:	8f 36       	cpi	r24, 0x6F	; 111
     d92:	91 f0       	breq	.+36     	; 0xdb8 <__stack+0x4b9>
     d94:	18 f4       	brcc	.+6      	; 0xd9c <__stack+0x49d>
     d96:	88 35       	cpi	r24, 0x58	; 88
     d98:	59 f0       	breq	.+22     	; 0xdb0 <__stack+0x4b1>
     d9a:	c3 c0       	rjmp	.+390    	; 0xf22 <__stack+0x623>
     d9c:	80 37       	cpi	r24, 0x70	; 112
     d9e:	19 f0       	breq	.+6      	; 0xda6 <__stack+0x4a7>
     da0:	88 37       	cpi	r24, 0x78	; 120
     da2:	11 f0       	breq	.+4      	; 0xda8 <__stack+0x4a9>
     da4:	be c0       	rjmp	.+380    	; 0xf22 <__stack+0x623>
     da6:	00 61       	ori	r16, 0x10	; 16
     da8:	04 ff       	sbrs	r16, 4
     daa:	09 c0       	rjmp	.+18     	; 0xdbe <__stack+0x4bf>
     dac:	04 60       	ori	r16, 0x04	; 4
     dae:	07 c0       	rjmp	.+14     	; 0xdbe <__stack+0x4bf>
     db0:	94 fe       	sbrs	r9, 4
     db2:	08 c0       	rjmp	.+16     	; 0xdc4 <__stack+0x4c5>
     db4:	06 60       	ori	r16, 0x06	; 6
     db6:	06 c0       	rjmp	.+12     	; 0xdc4 <__stack+0x4c5>
     db8:	28 e0       	ldi	r18, 0x08	; 8
     dba:	30 e0       	ldi	r19, 0x00	; 0
     dbc:	05 c0       	rjmp	.+10     	; 0xdc8 <__stack+0x4c9>
     dbe:	20 e1       	ldi	r18, 0x10	; 16
     dc0:	30 e0       	ldi	r19, 0x00	; 0
     dc2:	02 c0       	rjmp	.+4      	; 0xdc8 <__stack+0x4c9>
     dc4:	20 e1       	ldi	r18, 0x10	; 16
     dc6:	32 e0       	ldi	r19, 0x02	; 2
     dc8:	56 01       	movw	r10, r12
     dca:	07 ff       	sbrs	r16, 7
     dcc:	09 c0       	rjmp	.+18     	; 0xde0 <__stack+0x4e1>
     dce:	84 e0       	ldi	r24, 0x04	; 4
     dd0:	a8 0e       	add	r10, r24
     dd2:	b1 1c       	adc	r11, r1
     dd4:	f6 01       	movw	r30, r12
     dd6:	60 81       	ld	r22, Z
     dd8:	71 81       	ldd	r23, Z+1	; 0x01
     dda:	82 81       	ldd	r24, Z+2	; 0x02
     ddc:	93 81       	ldd	r25, Z+3	; 0x03
     dde:	08 c0       	rjmp	.+16     	; 0xdf0 <__stack+0x4f1>
     de0:	f2 e0       	ldi	r31, 0x02	; 2
     de2:	af 0e       	add	r10, r31
     de4:	b1 1c       	adc	r11, r1
     de6:	f6 01       	movw	r30, r12
     de8:	60 81       	ld	r22, Z
     dea:	71 81       	ldd	r23, Z+1	; 0x01
     dec:	80 e0       	ldi	r24, 0x00	; 0
     dee:	90 e0       	ldi	r25, 0x00	; 0
     df0:	a3 01       	movw	r20, r6
     df2:	0e 94 66 09 	call	0x12cc	; 0x12cc <__ultoa_invert>
     df6:	c8 2e       	mov	r12, r24
     df8:	c6 18       	sub	r12, r6
     dfa:	0f 77       	andi	r16, 0x7F	; 127
     dfc:	90 2e       	mov	r9, r16
     dfe:	96 fe       	sbrs	r9, 6
     e00:	0b c0       	rjmp	.+22     	; 0xe18 <__stack+0x519>
     e02:	09 2d       	mov	r16, r9
     e04:	0e 7f       	andi	r16, 0xFE	; 254
     e06:	c1 16       	cp	r12, r17
     e08:	50 f4       	brcc	.+20     	; 0xe1e <__stack+0x51f>
     e0a:	94 fe       	sbrs	r9, 4
     e0c:	0a c0       	rjmp	.+20     	; 0xe22 <__stack+0x523>
     e0e:	92 fc       	sbrc	r9, 2
     e10:	08 c0       	rjmp	.+16     	; 0xe22 <__stack+0x523>
     e12:	09 2d       	mov	r16, r9
     e14:	0e 7e       	andi	r16, 0xEE	; 238
     e16:	05 c0       	rjmp	.+10     	; 0xe22 <__stack+0x523>
     e18:	dc 2c       	mov	r13, r12
     e1a:	09 2d       	mov	r16, r9
     e1c:	03 c0       	rjmp	.+6      	; 0xe24 <__stack+0x525>
     e1e:	dc 2c       	mov	r13, r12
     e20:	01 c0       	rjmp	.+2      	; 0xe24 <__stack+0x525>
     e22:	d1 2e       	mov	r13, r17
     e24:	04 ff       	sbrs	r16, 4
     e26:	0d c0       	rjmp	.+26     	; 0xe42 <__stack+0x543>
     e28:	fe 01       	movw	r30, r28
     e2a:	ec 0d       	add	r30, r12
     e2c:	f1 1d       	adc	r31, r1
     e2e:	80 81       	ld	r24, Z
     e30:	80 33       	cpi	r24, 0x30	; 48
     e32:	11 f4       	brne	.+4      	; 0xe38 <__stack+0x539>
     e34:	09 7e       	andi	r16, 0xE9	; 233
     e36:	09 c0       	rjmp	.+18     	; 0xe4a <__stack+0x54b>
     e38:	02 ff       	sbrs	r16, 2
     e3a:	06 c0       	rjmp	.+12     	; 0xe48 <__stack+0x549>
     e3c:	d3 94       	inc	r13
     e3e:	d3 94       	inc	r13
     e40:	04 c0       	rjmp	.+8      	; 0xe4a <__stack+0x54b>
     e42:	80 2f       	mov	r24, r16
     e44:	86 78       	andi	r24, 0x86	; 134
     e46:	09 f0       	breq	.+2      	; 0xe4a <__stack+0x54b>
     e48:	d3 94       	inc	r13
     e4a:	03 fd       	sbrc	r16, 3
     e4c:	11 c0       	rjmp	.+34     	; 0xe70 <__stack+0x571>
     e4e:	00 ff       	sbrs	r16, 0
     e50:	06 c0       	rjmp	.+12     	; 0xe5e <__stack+0x55f>
     e52:	1c 2d       	mov	r17, r12
     e54:	d5 14       	cp	r13, r5
     e56:	80 f4       	brcc	.+32     	; 0xe78 <__stack+0x579>
     e58:	15 0d       	add	r17, r5
     e5a:	1d 19       	sub	r17, r13
     e5c:	0d c0       	rjmp	.+26     	; 0xe78 <__stack+0x579>
     e5e:	d5 14       	cp	r13, r5
     e60:	58 f4       	brcc	.+22     	; 0xe78 <__stack+0x579>
     e62:	b7 01       	movw	r22, r14
     e64:	80 e2       	ldi	r24, 0x20	; 32
     e66:	90 e0       	ldi	r25, 0x00	; 0
     e68:	0e 94 e4 08 	call	0x11c8	; 0x11c8 <fputc>
     e6c:	d3 94       	inc	r13
     e6e:	f7 cf       	rjmp	.-18     	; 0xe5e <__stack+0x55f>
     e70:	d5 14       	cp	r13, r5
     e72:	10 f4       	brcc	.+4      	; 0xe78 <__stack+0x579>
     e74:	5d 18       	sub	r5, r13
     e76:	01 c0       	rjmp	.+2      	; 0xe7a <__stack+0x57b>
     e78:	51 2c       	mov	r5, r1
     e7a:	04 ff       	sbrs	r16, 4
     e7c:	10 c0       	rjmp	.+32     	; 0xe9e <__stack+0x59f>
     e7e:	b7 01       	movw	r22, r14
     e80:	80 e3       	ldi	r24, 0x30	; 48
     e82:	90 e0       	ldi	r25, 0x00	; 0
     e84:	0e 94 e4 08 	call	0x11c8	; 0x11c8 <fputc>
     e88:	02 ff       	sbrs	r16, 2
     e8a:	17 c0       	rjmp	.+46     	; 0xeba <__stack+0x5bb>
     e8c:	01 fd       	sbrc	r16, 1
     e8e:	03 c0       	rjmp	.+6      	; 0xe96 <__stack+0x597>
     e90:	88 e7       	ldi	r24, 0x78	; 120
     e92:	90 e0       	ldi	r25, 0x00	; 0
     e94:	02 c0       	rjmp	.+4      	; 0xe9a <__stack+0x59b>
     e96:	88 e5       	ldi	r24, 0x58	; 88
     e98:	90 e0       	ldi	r25, 0x00	; 0
     e9a:	b7 01       	movw	r22, r14
     e9c:	0c c0       	rjmp	.+24     	; 0xeb6 <__stack+0x5b7>
     e9e:	80 2f       	mov	r24, r16
     ea0:	86 78       	andi	r24, 0x86	; 134
     ea2:	59 f0       	breq	.+22     	; 0xeba <__stack+0x5bb>
     ea4:	01 ff       	sbrs	r16, 1
     ea6:	02 c0       	rjmp	.+4      	; 0xeac <__stack+0x5ad>
     ea8:	8b e2       	ldi	r24, 0x2B	; 43
     eaa:	01 c0       	rjmp	.+2      	; 0xeae <__stack+0x5af>
     eac:	80 e2       	ldi	r24, 0x20	; 32
     eae:	07 fd       	sbrc	r16, 7
     eb0:	8d e2       	ldi	r24, 0x2D	; 45
     eb2:	b7 01       	movw	r22, r14
     eb4:	90 e0       	ldi	r25, 0x00	; 0
     eb6:	0e 94 e4 08 	call	0x11c8	; 0x11c8 <fputc>
     eba:	c1 16       	cp	r12, r17
     ebc:	38 f4       	brcc	.+14     	; 0xecc <__stack+0x5cd>
     ebe:	b7 01       	movw	r22, r14
     ec0:	80 e3       	ldi	r24, 0x30	; 48
     ec2:	90 e0       	ldi	r25, 0x00	; 0
     ec4:	0e 94 e4 08 	call	0x11c8	; 0x11c8 <fputc>
     ec8:	11 50       	subi	r17, 0x01	; 1
     eca:	f7 cf       	rjmp	.-18     	; 0xeba <__stack+0x5bb>
     ecc:	ca 94       	dec	r12
     ece:	f3 01       	movw	r30, r6
     ed0:	ec 0d       	add	r30, r12
     ed2:	f1 1d       	adc	r31, r1
     ed4:	80 81       	ld	r24, Z
     ed6:	b7 01       	movw	r22, r14
     ed8:	90 e0       	ldi	r25, 0x00	; 0
     eda:	0e 94 e4 08 	call	0x11c8	; 0x11c8 <fputc>
     ede:	c1 10       	cpse	r12, r1
     ee0:	f5 cf       	rjmp	.-22     	; 0xecc <__stack+0x5cd>
     ee2:	15 c0       	rjmp	.+42     	; 0xf0e <__stack+0x60f>
     ee4:	f4 e0       	ldi	r31, 0x04	; 4
     ee6:	f5 15       	cp	r31, r5
     ee8:	60 f5       	brcc	.+88     	; 0xf42 <__stack+0x643>
     eea:	84 e0       	ldi	r24, 0x04	; 4
     eec:	58 1a       	sub	r5, r24
     eee:	93 fe       	sbrs	r9, 3
     ef0:	1f c0       	rjmp	.+62     	; 0xf30 <__stack+0x631>
     ef2:	01 11       	cpse	r16, r1
     ef4:	27 c0       	rjmp	.+78     	; 0xf44 <__stack+0x645>
     ef6:	2c 85       	ldd	r18, Y+12	; 0x0c
     ef8:	23 ff       	sbrs	r18, 3
     efa:	2a c0       	rjmp	.+84     	; 0xf50 <__stack+0x651>
     efc:	08 e6       	ldi	r16, 0x68	; 104
     efe:	10 e0       	ldi	r17, 0x00	; 0
     f00:	39 2d       	mov	r19, r9
     f02:	30 71       	andi	r19, 0x10	; 16
     f04:	93 2e       	mov	r9, r19
     f06:	f8 01       	movw	r30, r16
     f08:	84 91       	lpm	r24, Z
     f0a:	81 11       	cpse	r24, r1
     f0c:	24 c0       	rjmp	.+72     	; 0xf56 <__stack+0x657>
     f0e:	55 20       	and	r5, r5
     f10:	09 f4       	brne	.+2      	; 0xf14 <__stack+0x615>
     f12:	e4 cc       	rjmp	.-1592   	; 0x8dc <vfprintf+0x58>
     f14:	b7 01       	movw	r22, r14
     f16:	80 e2       	ldi	r24, 0x20	; 32
     f18:	90 e0       	ldi	r25, 0x00	; 0
     f1a:	0e 94 e4 08 	call	0x11c8	; 0x11c8 <fputc>
     f1e:	5a 94       	dec	r5
     f20:	f6 cf       	rjmp	.-20     	; 0xf0e <__stack+0x60f>
     f22:	f7 01       	movw	r30, r14
     f24:	86 81       	ldd	r24, Z+6	; 0x06
     f26:	97 81       	ldd	r25, Z+7	; 0x07
     f28:	26 c0       	rjmp	.+76     	; 0xf76 <__stack+0x677>
     f2a:	8f ef       	ldi	r24, 0xFF	; 255
     f2c:	9f ef       	ldi	r25, 0xFF	; 255
     f2e:	23 c0       	rjmp	.+70     	; 0xf76 <__stack+0x677>
     f30:	b7 01       	movw	r22, r14
     f32:	80 e2       	ldi	r24, 0x20	; 32
     f34:	90 e0       	ldi	r25, 0x00	; 0
     f36:	0e 94 e4 08 	call	0x11c8	; 0x11c8 <fputc>
     f3a:	5a 94       	dec	r5
     f3c:	51 10       	cpse	r5, r1
     f3e:	f8 cf       	rjmp	.-16     	; 0xf30 <__stack+0x631>
     f40:	d8 cf       	rjmp	.-80     	; 0xef2 <__stack+0x5f3>
     f42:	51 2c       	mov	r5, r1
     f44:	b7 01       	movw	r22, r14
     f46:	80 2f       	mov	r24, r16
     f48:	90 e0       	ldi	r25, 0x00	; 0
     f4a:	0e 94 e4 08 	call	0x11c8	; 0x11c8 <fputc>
     f4e:	d3 cf       	rjmp	.-90     	; 0xef6 <__stack+0x5f7>
     f50:	0c e6       	ldi	r16, 0x6C	; 108
     f52:	10 e0       	ldi	r17, 0x00	; 0
     f54:	d5 cf       	rjmp	.-86     	; 0xf00 <__stack+0x601>
     f56:	91 10       	cpse	r9, r1
     f58:	80 52       	subi	r24, 0x20	; 32
     f5a:	b7 01       	movw	r22, r14
     f5c:	90 e0       	ldi	r25, 0x00	; 0
     f5e:	0e 94 e4 08 	call	0x11c8	; 0x11c8 <fputc>
     f62:	0f 5f       	subi	r16, 0xFF	; 255
     f64:	1f 4f       	sbci	r17, 0xFF	; 255
     f66:	cf cf       	rjmp	.-98     	; 0xf06 <__stack+0x607>
     f68:	23 e0       	ldi	r18, 0x03	; 3
     f6a:	25 15       	cp	r18, r5
     f6c:	10 f4       	brcc	.+4      	; 0xf72 <__stack+0x673>
     f6e:	83 e0       	ldi	r24, 0x03	; 3
     f70:	bd cf       	rjmp	.-134    	; 0xeec <__stack+0x5ed>
     f72:	51 2c       	mov	r5, r1
     f74:	c0 cf       	rjmp	.-128    	; 0xef6 <__stack+0x5f7>
     f76:	60 96       	adiw	r28, 0x10	; 16
     f78:	e2 e1       	ldi	r30, 0x12	; 18
     f7a:	0c 94 db 07 	jmp	0xfb6	; 0xfb6 <__epilogue_restores__>

00000f7e <__prologue_saves__>:
     f7e:	2f 92       	push	r2
     f80:	3f 92       	push	r3
     f82:	4f 92       	push	r4
     f84:	5f 92       	push	r5
     f86:	6f 92       	push	r6
     f88:	7f 92       	push	r7
     f8a:	8f 92       	push	r8
     f8c:	9f 92       	push	r9
     f8e:	af 92       	push	r10
     f90:	bf 92       	push	r11
     f92:	cf 92       	push	r12
     f94:	df 92       	push	r13
     f96:	ef 92       	push	r14
     f98:	ff 92       	push	r15
     f9a:	0f 93       	push	r16
     f9c:	1f 93       	push	r17
     f9e:	cf 93       	push	r28
     fa0:	df 93       	push	r29
     fa2:	cd b7       	in	r28, 0x3d	; 61
     fa4:	de b7       	in	r29, 0x3e	; 62
     fa6:	ca 1b       	sub	r28, r26
     fa8:	db 0b       	sbc	r29, r27
     faa:	0f b6       	in	r0, 0x3f	; 63
     fac:	f8 94       	cli
     fae:	de bf       	out	0x3e, r29	; 62
     fb0:	0f be       	out	0x3f, r0	; 63
     fb2:	cd bf       	out	0x3d, r28	; 61
     fb4:	09 94       	ijmp

00000fb6 <__epilogue_restores__>:
     fb6:	2a 88       	ldd	r2, Y+18	; 0x12
     fb8:	39 88       	ldd	r3, Y+17	; 0x11
     fba:	48 88       	ldd	r4, Y+16	; 0x10
     fbc:	5f 84       	ldd	r5, Y+15	; 0x0f
     fbe:	6e 84       	ldd	r6, Y+14	; 0x0e
     fc0:	7d 84       	ldd	r7, Y+13	; 0x0d
     fc2:	8c 84       	ldd	r8, Y+12	; 0x0c
     fc4:	9b 84       	ldd	r9, Y+11	; 0x0b
     fc6:	aa 84       	ldd	r10, Y+10	; 0x0a
     fc8:	b9 84       	ldd	r11, Y+9	; 0x09
     fca:	c8 84       	ldd	r12, Y+8	; 0x08
     fcc:	df 80       	ldd	r13, Y+7	; 0x07
     fce:	ee 80       	ldd	r14, Y+6	; 0x06
     fd0:	fd 80       	ldd	r15, Y+5	; 0x05
     fd2:	0c 81       	ldd	r16, Y+4	; 0x04
     fd4:	1b 81       	ldd	r17, Y+3	; 0x03
     fd6:	aa 81       	ldd	r26, Y+2	; 0x02
     fd8:	b9 81       	ldd	r27, Y+1	; 0x01
     fda:	ce 0f       	add	r28, r30
     fdc:	d1 1d       	adc	r29, r1
     fde:	0f b6       	in	r0, 0x3f	; 63
     fe0:	f8 94       	cli
     fe2:	de bf       	out	0x3e, r29	; 62
     fe4:	0f be       	out	0x3f, r0	; 63
     fe6:	cd bf       	out	0x3d, r28	; 61
     fe8:	ed 01       	movw	r28, r26
     fea:	08 95       	ret

00000fec <__ftoa_engine>:
     fec:	28 30       	cpi	r18, 0x08	; 8
     fee:	08 f0       	brcs	.+2      	; 0xff2 <__ftoa_engine+0x6>
     ff0:	27 e0       	ldi	r18, 0x07	; 7
     ff2:	33 27       	eor	r19, r19
     ff4:	da 01       	movw	r26, r20
     ff6:	99 0f       	add	r25, r25
     ff8:	31 1d       	adc	r19, r1
     ffa:	87 fd       	sbrc	r24, 7
     ffc:	91 60       	ori	r25, 0x01	; 1
     ffe:	00 96       	adiw	r24, 0x00	; 0
    1000:	61 05       	cpc	r22, r1
    1002:	71 05       	cpc	r23, r1
    1004:	39 f4       	brne	.+14     	; 0x1014 <__ftoa_engine+0x28>
    1006:	32 60       	ori	r19, 0x02	; 2
    1008:	2e 5f       	subi	r18, 0xFE	; 254
    100a:	3d 93       	st	X+, r19
    100c:	30 e3       	ldi	r19, 0x30	; 48
    100e:	2a 95       	dec	r18
    1010:	e1 f7       	brne	.-8      	; 0x100a <__ftoa_engine+0x1e>
    1012:	08 95       	ret
    1014:	9f 3f       	cpi	r25, 0xFF	; 255
    1016:	30 f0       	brcs	.+12     	; 0x1024 <__ftoa_engine+0x38>
    1018:	80 38       	cpi	r24, 0x80	; 128
    101a:	71 05       	cpc	r23, r1
    101c:	61 05       	cpc	r22, r1
    101e:	09 f0       	breq	.+2      	; 0x1022 <__ftoa_engine+0x36>
    1020:	3c 5f       	subi	r19, 0xFC	; 252
    1022:	3c 5f       	subi	r19, 0xFC	; 252
    1024:	3d 93       	st	X+, r19
    1026:	91 30       	cpi	r25, 0x01	; 1
    1028:	08 f0       	brcs	.+2      	; 0x102c <__ftoa_engine+0x40>
    102a:	80 68       	ori	r24, 0x80	; 128
    102c:	91 1d       	adc	r25, r1
    102e:	df 93       	push	r29
    1030:	cf 93       	push	r28
    1032:	1f 93       	push	r17
    1034:	0f 93       	push	r16
    1036:	ff 92       	push	r15
    1038:	ef 92       	push	r14
    103a:	19 2f       	mov	r17, r25
    103c:	98 7f       	andi	r25, 0xF8	; 248
    103e:	96 95       	lsr	r25
    1040:	e9 2f       	mov	r30, r25
    1042:	96 95       	lsr	r25
    1044:	96 95       	lsr	r25
    1046:	e9 0f       	add	r30, r25
    1048:	ff 27       	eor	r31, r31
    104a:	e6 53       	subi	r30, 0x36	; 54
    104c:	ff 4f       	sbci	r31, 0xFF	; 255
    104e:	99 27       	eor	r25, r25
    1050:	33 27       	eor	r19, r19
    1052:	ee 24       	eor	r14, r14
    1054:	ff 24       	eor	r15, r15
    1056:	a7 01       	movw	r20, r14
    1058:	e7 01       	movw	r28, r14
    105a:	05 90       	lpm	r0, Z+
    105c:	08 94       	sec
    105e:	07 94       	ror	r0
    1060:	28 f4       	brcc	.+10     	; 0x106c <__ftoa_engine+0x80>
    1062:	36 0f       	add	r19, r22
    1064:	e7 1e       	adc	r14, r23
    1066:	f8 1e       	adc	r15, r24
    1068:	49 1f       	adc	r20, r25
    106a:	51 1d       	adc	r21, r1
    106c:	66 0f       	add	r22, r22
    106e:	77 1f       	adc	r23, r23
    1070:	88 1f       	adc	r24, r24
    1072:	99 1f       	adc	r25, r25
    1074:	06 94       	lsr	r0
    1076:	a1 f7       	brne	.-24     	; 0x1060 <__ftoa_engine+0x74>
    1078:	05 90       	lpm	r0, Z+
    107a:	07 94       	ror	r0
    107c:	28 f4       	brcc	.+10     	; 0x1088 <__ftoa_engine+0x9c>
    107e:	e7 0e       	add	r14, r23
    1080:	f8 1e       	adc	r15, r24
    1082:	49 1f       	adc	r20, r25
    1084:	56 1f       	adc	r21, r22
    1086:	c1 1d       	adc	r28, r1
    1088:	77 0f       	add	r23, r23
    108a:	88 1f       	adc	r24, r24
    108c:	99 1f       	adc	r25, r25
    108e:	66 1f       	adc	r22, r22
    1090:	06 94       	lsr	r0
    1092:	a1 f7       	brne	.-24     	; 0x107c <__ftoa_engine+0x90>
    1094:	05 90       	lpm	r0, Z+
    1096:	07 94       	ror	r0
    1098:	28 f4       	brcc	.+10     	; 0x10a4 <__ftoa_engine+0xb8>
    109a:	f8 0e       	add	r15, r24
    109c:	49 1f       	adc	r20, r25
    109e:	56 1f       	adc	r21, r22
    10a0:	c7 1f       	adc	r28, r23
    10a2:	d1 1d       	adc	r29, r1
    10a4:	88 0f       	add	r24, r24
    10a6:	99 1f       	adc	r25, r25
    10a8:	66 1f       	adc	r22, r22
    10aa:	77 1f       	adc	r23, r23
    10ac:	06 94       	lsr	r0
    10ae:	a1 f7       	brne	.-24     	; 0x1098 <__ftoa_engine+0xac>
    10b0:	05 90       	lpm	r0, Z+
    10b2:	07 94       	ror	r0
    10b4:	20 f4       	brcc	.+8      	; 0x10be <__ftoa_engine+0xd2>
    10b6:	49 0f       	add	r20, r25
    10b8:	56 1f       	adc	r21, r22
    10ba:	c7 1f       	adc	r28, r23
    10bc:	d8 1f       	adc	r29, r24
    10be:	99 0f       	add	r25, r25
    10c0:	66 1f       	adc	r22, r22
    10c2:	77 1f       	adc	r23, r23
    10c4:	88 1f       	adc	r24, r24
    10c6:	06 94       	lsr	r0
    10c8:	a9 f7       	brne	.-22     	; 0x10b4 <__ftoa_engine+0xc8>
    10ca:	84 91       	lpm	r24, Z
    10cc:	10 95       	com	r17
    10ce:	17 70       	andi	r17, 0x07	; 7
    10d0:	41 f0       	breq	.+16     	; 0x10e2 <__ftoa_engine+0xf6>
    10d2:	d6 95       	lsr	r29
    10d4:	c7 95       	ror	r28
    10d6:	57 95       	ror	r21
    10d8:	47 95       	ror	r20
    10da:	f7 94       	ror	r15
    10dc:	e7 94       	ror	r14
    10de:	1a 95       	dec	r17
    10e0:	c1 f7       	brne	.-16     	; 0x10d2 <__ftoa_engine+0xe6>
    10e2:	e0 e7       	ldi	r30, 0x70	; 112
    10e4:	f0 e0       	ldi	r31, 0x00	; 0
    10e6:	68 94       	set
    10e8:	15 90       	lpm	r1, Z+
    10ea:	15 91       	lpm	r17, Z+
    10ec:	35 91       	lpm	r19, Z+
    10ee:	65 91       	lpm	r22, Z+
    10f0:	95 91       	lpm	r25, Z+
    10f2:	05 90       	lpm	r0, Z+
    10f4:	7f e2       	ldi	r23, 0x2F	; 47
    10f6:	73 95       	inc	r23
    10f8:	e1 18       	sub	r14, r1
    10fa:	f1 0a       	sbc	r15, r17
    10fc:	43 0b       	sbc	r20, r19
    10fe:	56 0b       	sbc	r21, r22
    1100:	c9 0b       	sbc	r28, r25
    1102:	d0 09       	sbc	r29, r0
    1104:	c0 f7       	brcc	.-16     	; 0x10f6 <__ftoa_engine+0x10a>
    1106:	e1 0c       	add	r14, r1
    1108:	f1 1e       	adc	r15, r17
    110a:	43 1f       	adc	r20, r19
    110c:	56 1f       	adc	r21, r22
    110e:	c9 1f       	adc	r28, r25
    1110:	d0 1d       	adc	r29, r0
    1112:	7e f4       	brtc	.+30     	; 0x1132 <__ftoa_engine+0x146>
    1114:	70 33       	cpi	r23, 0x30	; 48
    1116:	11 f4       	brne	.+4      	; 0x111c <__ftoa_engine+0x130>
    1118:	8a 95       	dec	r24
    111a:	e6 cf       	rjmp	.-52     	; 0x10e8 <__ftoa_engine+0xfc>
    111c:	e8 94       	clt
    111e:	01 50       	subi	r16, 0x01	; 1
    1120:	30 f0       	brcs	.+12     	; 0x112e <__ftoa_engine+0x142>
    1122:	08 0f       	add	r16, r24
    1124:	0a f4       	brpl	.+2      	; 0x1128 <__ftoa_engine+0x13c>
    1126:	00 27       	eor	r16, r16
    1128:	02 17       	cp	r16, r18
    112a:	08 f4       	brcc	.+2      	; 0x112e <__ftoa_engine+0x142>
    112c:	20 2f       	mov	r18, r16
    112e:	23 95       	inc	r18
    1130:	02 2f       	mov	r16, r18
    1132:	7a 33       	cpi	r23, 0x3A	; 58
    1134:	28 f0       	brcs	.+10     	; 0x1140 <__ftoa_engine+0x154>
    1136:	79 e3       	ldi	r23, 0x39	; 57
    1138:	7d 93       	st	X+, r23
    113a:	2a 95       	dec	r18
    113c:	e9 f7       	brne	.-6      	; 0x1138 <__ftoa_engine+0x14c>
    113e:	10 c0       	rjmp	.+32     	; 0x1160 <__ftoa_engine+0x174>
    1140:	7d 93       	st	X+, r23
    1142:	2a 95       	dec	r18
    1144:	89 f6       	brne	.-94     	; 0x10e8 <__ftoa_engine+0xfc>
    1146:	06 94       	lsr	r0
    1148:	97 95       	ror	r25
    114a:	67 95       	ror	r22
    114c:	37 95       	ror	r19
    114e:	17 95       	ror	r17
    1150:	17 94       	ror	r1
    1152:	e1 18       	sub	r14, r1
    1154:	f1 0a       	sbc	r15, r17
    1156:	43 0b       	sbc	r20, r19
    1158:	56 0b       	sbc	r21, r22
    115a:	c9 0b       	sbc	r28, r25
    115c:	d0 09       	sbc	r29, r0
    115e:	98 f0       	brcs	.+38     	; 0x1186 <__ftoa_engine+0x19a>
    1160:	23 95       	inc	r18
    1162:	7e 91       	ld	r23, -X
    1164:	73 95       	inc	r23
    1166:	7a 33       	cpi	r23, 0x3A	; 58
    1168:	08 f0       	brcs	.+2      	; 0x116c <__ftoa_engine+0x180>
    116a:	70 e3       	ldi	r23, 0x30	; 48
    116c:	7c 93       	st	X, r23
    116e:	20 13       	cpse	r18, r16
    1170:	b8 f7       	brcc	.-18     	; 0x1160 <__ftoa_engine+0x174>
    1172:	7e 91       	ld	r23, -X
    1174:	70 61       	ori	r23, 0x10	; 16
    1176:	7d 93       	st	X+, r23
    1178:	30 f0       	brcs	.+12     	; 0x1186 <__ftoa_engine+0x19a>
    117a:	83 95       	inc	r24
    117c:	71 e3       	ldi	r23, 0x31	; 49
    117e:	7d 93       	st	X+, r23
    1180:	70 e3       	ldi	r23, 0x30	; 48
    1182:	2a 95       	dec	r18
    1184:	e1 f7       	brne	.-8      	; 0x117e <__ftoa_engine+0x192>
    1186:	11 24       	eor	r1, r1
    1188:	ef 90       	pop	r14
    118a:	ff 90       	pop	r15
    118c:	0f 91       	pop	r16
    118e:	1f 91       	pop	r17
    1190:	cf 91       	pop	r28
    1192:	df 91       	pop	r29
    1194:	99 27       	eor	r25, r25
    1196:	87 fd       	sbrc	r24, 7
    1198:	90 95       	com	r25
    119a:	08 95       	ret

0000119c <strnlen_P>:
    119c:	fc 01       	movw	r30, r24
    119e:	05 90       	lpm	r0, Z+
    11a0:	61 50       	subi	r22, 0x01	; 1
    11a2:	70 40       	sbci	r23, 0x00	; 0
    11a4:	01 10       	cpse	r0, r1
    11a6:	d8 f7       	brcc	.-10     	; 0x119e <strnlen_P+0x2>
    11a8:	80 95       	com	r24
    11aa:	90 95       	com	r25
    11ac:	8e 0f       	add	r24, r30
    11ae:	9f 1f       	adc	r25, r31
    11b0:	08 95       	ret

000011b2 <strnlen>:
    11b2:	fc 01       	movw	r30, r24
    11b4:	61 50       	subi	r22, 0x01	; 1
    11b6:	70 40       	sbci	r23, 0x00	; 0
    11b8:	01 90       	ld	r0, Z+
    11ba:	01 10       	cpse	r0, r1
    11bc:	d8 f7       	brcc	.-10     	; 0x11b4 <strnlen+0x2>
    11be:	80 95       	com	r24
    11c0:	90 95       	com	r25
    11c2:	8e 0f       	add	r24, r30
    11c4:	9f 1f       	adc	r25, r31
    11c6:	08 95       	ret

000011c8 <fputc>:
    11c8:	0f 93       	push	r16
    11ca:	1f 93       	push	r17
    11cc:	cf 93       	push	r28
    11ce:	df 93       	push	r29
    11d0:	fb 01       	movw	r30, r22
    11d2:	23 81       	ldd	r18, Z+3	; 0x03
    11d4:	21 fd       	sbrc	r18, 1
    11d6:	03 c0       	rjmp	.+6      	; 0x11de <fputc+0x16>
    11d8:	8f ef       	ldi	r24, 0xFF	; 255
    11da:	9f ef       	ldi	r25, 0xFF	; 255
    11dc:	2c c0       	rjmp	.+88     	; 0x1236 <fputc+0x6e>
    11de:	22 ff       	sbrs	r18, 2
    11e0:	16 c0       	rjmp	.+44     	; 0x120e <fputc+0x46>
    11e2:	46 81       	ldd	r20, Z+6	; 0x06
    11e4:	57 81       	ldd	r21, Z+7	; 0x07
    11e6:	24 81       	ldd	r18, Z+4	; 0x04
    11e8:	35 81       	ldd	r19, Z+5	; 0x05
    11ea:	42 17       	cp	r20, r18
    11ec:	53 07       	cpc	r21, r19
    11ee:	44 f4       	brge	.+16     	; 0x1200 <fputc+0x38>
    11f0:	a0 81       	ld	r26, Z
    11f2:	b1 81       	ldd	r27, Z+1	; 0x01
    11f4:	9d 01       	movw	r18, r26
    11f6:	2f 5f       	subi	r18, 0xFF	; 255
    11f8:	3f 4f       	sbci	r19, 0xFF	; 255
    11fa:	31 83       	std	Z+1, r19	; 0x01
    11fc:	20 83       	st	Z, r18
    11fe:	8c 93       	st	X, r24
    1200:	26 81       	ldd	r18, Z+6	; 0x06
    1202:	37 81       	ldd	r19, Z+7	; 0x07
    1204:	2f 5f       	subi	r18, 0xFF	; 255
    1206:	3f 4f       	sbci	r19, 0xFF	; 255
    1208:	37 83       	std	Z+7, r19	; 0x07
    120a:	26 83       	std	Z+6, r18	; 0x06
    120c:	14 c0       	rjmp	.+40     	; 0x1236 <fputc+0x6e>
    120e:	8b 01       	movw	r16, r22
    1210:	ec 01       	movw	r28, r24
    1212:	fb 01       	movw	r30, r22
    1214:	00 84       	ldd	r0, Z+8	; 0x08
    1216:	f1 85       	ldd	r31, Z+9	; 0x09
    1218:	e0 2d       	mov	r30, r0
    121a:	09 95       	icall
    121c:	89 2b       	or	r24, r25
    121e:	e1 f6       	brne	.-72     	; 0x11d8 <fputc+0x10>
    1220:	d8 01       	movw	r26, r16
    1222:	16 96       	adiw	r26, 0x06	; 6
    1224:	8d 91       	ld	r24, X+
    1226:	9c 91       	ld	r25, X
    1228:	17 97       	sbiw	r26, 0x07	; 7
    122a:	01 96       	adiw	r24, 0x01	; 1
    122c:	17 96       	adiw	r26, 0x07	; 7
    122e:	9c 93       	st	X, r25
    1230:	8e 93       	st	-X, r24
    1232:	16 97       	sbiw	r26, 0x06	; 6
    1234:	ce 01       	movw	r24, r28
    1236:	df 91       	pop	r29
    1238:	cf 91       	pop	r28
    123a:	1f 91       	pop	r17
    123c:	0f 91       	pop	r16
    123e:	08 95       	ret

00001240 <printf>:
    1240:	a0 e0       	ldi	r26, 0x00	; 0
    1242:	b0 e0       	ldi	r27, 0x00	; 0
    1244:	e6 e2       	ldi	r30, 0x26	; 38
    1246:	f9 e0       	ldi	r31, 0x09	; 9
    1248:	0c 94 cf 07 	jmp	0xf9e	; 0xf9e <__prologue_saves__+0x20>
    124c:	ae 01       	movw	r20, r28
    124e:	4b 5f       	subi	r20, 0xFB	; 251
    1250:	5f 4f       	sbci	r21, 0xFF	; 255
    1252:	fa 01       	movw	r30, r20
    1254:	61 91       	ld	r22, Z+
    1256:	71 91       	ld	r23, Z+
    1258:	af 01       	movw	r20, r30
    125a:	80 91 8f 01 	lds	r24, 0x018F	; 0x80018f <__iob+0x2>
    125e:	90 91 90 01 	lds	r25, 0x0190	; 0x800190 <__iob+0x3>
    1262:	0e 94 42 04 	call	0x884	; 0x884 <vfprintf>
    1266:	e2 e0       	ldi	r30, 0x02	; 2
    1268:	0c 94 eb 07 	jmp	0xfd6	; 0xfd6 <__epilogue_restores__+0x20>

0000126c <puts>:
    126c:	0f 93       	push	r16
    126e:	1f 93       	push	r17
    1270:	cf 93       	push	r28
    1272:	df 93       	push	r29
    1274:	e0 91 8f 01 	lds	r30, 0x018F	; 0x80018f <__iob+0x2>
    1278:	f0 91 90 01 	lds	r31, 0x0190	; 0x800190 <__iob+0x3>
    127c:	23 81       	ldd	r18, Z+3	; 0x03
    127e:	21 ff       	sbrs	r18, 1
    1280:	1b c0       	rjmp	.+54     	; 0x12b8 <puts+0x4c>
    1282:	8c 01       	movw	r16, r24
    1284:	d0 e0       	ldi	r29, 0x00	; 0
    1286:	c0 e0       	ldi	r28, 0x00	; 0
    1288:	f8 01       	movw	r30, r16
    128a:	81 91       	ld	r24, Z+
    128c:	8f 01       	movw	r16, r30
    128e:	60 91 8f 01 	lds	r22, 0x018F	; 0x80018f <__iob+0x2>
    1292:	70 91 90 01 	lds	r23, 0x0190	; 0x800190 <__iob+0x3>
    1296:	db 01       	movw	r26, r22
    1298:	18 96       	adiw	r26, 0x08	; 8
    129a:	ed 91       	ld	r30, X+
    129c:	fc 91       	ld	r31, X
    129e:	19 97       	sbiw	r26, 0x09	; 9
    12a0:	88 23       	and	r24, r24
    12a2:	31 f0       	breq	.+12     	; 0x12b0 <puts+0x44>
    12a4:	09 95       	icall
    12a6:	89 2b       	or	r24, r25
    12a8:	79 f3       	breq	.-34     	; 0x1288 <puts+0x1c>
    12aa:	df ef       	ldi	r29, 0xFF	; 255
    12ac:	cf ef       	ldi	r28, 0xFF	; 255
    12ae:	ec cf       	rjmp	.-40     	; 0x1288 <puts+0x1c>
    12b0:	8a e0       	ldi	r24, 0x0A	; 10
    12b2:	09 95       	icall
    12b4:	89 2b       	or	r24, r25
    12b6:	19 f0       	breq	.+6      	; 0x12be <puts+0x52>
    12b8:	8f ef       	ldi	r24, 0xFF	; 255
    12ba:	9f ef       	ldi	r25, 0xFF	; 255
    12bc:	02 c0       	rjmp	.+4      	; 0x12c2 <puts+0x56>
    12be:	8d 2f       	mov	r24, r29
    12c0:	9c 2f       	mov	r25, r28
    12c2:	df 91       	pop	r29
    12c4:	cf 91       	pop	r28
    12c6:	1f 91       	pop	r17
    12c8:	0f 91       	pop	r16
    12ca:	08 95       	ret

000012cc <__ultoa_invert>:
    12cc:	fa 01       	movw	r30, r20
    12ce:	aa 27       	eor	r26, r26
    12d0:	28 30       	cpi	r18, 0x08	; 8
    12d2:	51 f1       	breq	.+84     	; 0x1328 <__ultoa_invert+0x5c>
    12d4:	20 31       	cpi	r18, 0x10	; 16
    12d6:	81 f1       	breq	.+96     	; 0x1338 <__ultoa_invert+0x6c>
    12d8:	e8 94       	clt
    12da:	6f 93       	push	r22
    12dc:	6e 7f       	andi	r22, 0xFE	; 254
    12de:	6e 5f       	subi	r22, 0xFE	; 254
    12e0:	7f 4f       	sbci	r23, 0xFF	; 255
    12e2:	8f 4f       	sbci	r24, 0xFF	; 255
    12e4:	9f 4f       	sbci	r25, 0xFF	; 255
    12e6:	af 4f       	sbci	r26, 0xFF	; 255
    12e8:	b1 e0       	ldi	r27, 0x01	; 1
    12ea:	3e d0       	rcall	.+124    	; 0x1368 <__ultoa_invert+0x9c>
    12ec:	b4 e0       	ldi	r27, 0x04	; 4
    12ee:	3c d0       	rcall	.+120    	; 0x1368 <__ultoa_invert+0x9c>
    12f0:	67 0f       	add	r22, r23
    12f2:	78 1f       	adc	r23, r24
    12f4:	89 1f       	adc	r24, r25
    12f6:	9a 1f       	adc	r25, r26
    12f8:	a1 1d       	adc	r26, r1
    12fa:	68 0f       	add	r22, r24
    12fc:	79 1f       	adc	r23, r25
    12fe:	8a 1f       	adc	r24, r26
    1300:	91 1d       	adc	r25, r1
    1302:	a1 1d       	adc	r26, r1
    1304:	6a 0f       	add	r22, r26
    1306:	71 1d       	adc	r23, r1
    1308:	81 1d       	adc	r24, r1
    130a:	91 1d       	adc	r25, r1
    130c:	a1 1d       	adc	r26, r1
    130e:	20 d0       	rcall	.+64     	; 0x1350 <__ultoa_invert+0x84>
    1310:	09 f4       	brne	.+2      	; 0x1314 <__ultoa_invert+0x48>
    1312:	68 94       	set
    1314:	3f 91       	pop	r19
    1316:	2a e0       	ldi	r18, 0x0A	; 10
    1318:	26 9f       	mul	r18, r22
    131a:	11 24       	eor	r1, r1
    131c:	30 19       	sub	r19, r0
    131e:	30 5d       	subi	r19, 0xD0	; 208
    1320:	31 93       	st	Z+, r19
    1322:	de f6       	brtc	.-74     	; 0x12da <__ultoa_invert+0xe>
    1324:	cf 01       	movw	r24, r30
    1326:	08 95       	ret
    1328:	46 2f       	mov	r20, r22
    132a:	47 70       	andi	r20, 0x07	; 7
    132c:	40 5d       	subi	r20, 0xD0	; 208
    132e:	41 93       	st	Z+, r20
    1330:	b3 e0       	ldi	r27, 0x03	; 3
    1332:	0f d0       	rcall	.+30     	; 0x1352 <__ultoa_invert+0x86>
    1334:	c9 f7       	brne	.-14     	; 0x1328 <__ultoa_invert+0x5c>
    1336:	f6 cf       	rjmp	.-20     	; 0x1324 <__ultoa_invert+0x58>
    1338:	46 2f       	mov	r20, r22
    133a:	4f 70       	andi	r20, 0x0F	; 15
    133c:	40 5d       	subi	r20, 0xD0	; 208
    133e:	4a 33       	cpi	r20, 0x3A	; 58
    1340:	18 f0       	brcs	.+6      	; 0x1348 <__ultoa_invert+0x7c>
    1342:	49 5d       	subi	r20, 0xD9	; 217
    1344:	31 fd       	sbrc	r19, 1
    1346:	40 52       	subi	r20, 0x20	; 32
    1348:	41 93       	st	Z+, r20
    134a:	02 d0       	rcall	.+4      	; 0x1350 <__ultoa_invert+0x84>
    134c:	a9 f7       	brne	.-22     	; 0x1338 <__ultoa_invert+0x6c>
    134e:	ea cf       	rjmp	.-44     	; 0x1324 <__ultoa_invert+0x58>
    1350:	b4 e0       	ldi	r27, 0x04	; 4
    1352:	a6 95       	lsr	r26
    1354:	97 95       	ror	r25
    1356:	87 95       	ror	r24
    1358:	77 95       	ror	r23
    135a:	67 95       	ror	r22
    135c:	ba 95       	dec	r27
    135e:	c9 f7       	brne	.-14     	; 0x1352 <__ultoa_invert+0x86>
    1360:	00 97       	sbiw	r24, 0x00	; 0
    1362:	61 05       	cpc	r22, r1
    1364:	71 05       	cpc	r23, r1
    1366:	08 95       	ret
    1368:	9b 01       	movw	r18, r22
    136a:	ac 01       	movw	r20, r24
    136c:	0a 2e       	mov	r0, r26
    136e:	06 94       	lsr	r0
    1370:	57 95       	ror	r21
    1372:	47 95       	ror	r20
    1374:	37 95       	ror	r19
    1376:	27 95       	ror	r18
    1378:	ba 95       	dec	r27
    137a:	c9 f7       	brne	.-14     	; 0x136e <__ultoa_invert+0xa2>
    137c:	62 0f       	add	r22, r18
    137e:	73 1f       	adc	r23, r19
    1380:	84 1f       	adc	r24, r20
    1382:	95 1f       	adc	r25, r21
    1384:	a0 1d       	adc	r26, r0
    1386:	08 95       	ret

00001388 <_exit>:
    1388:	f8 94       	cli

0000138a <__stop_program>:
    138a:	ff cf       	rjmp	.-2      	; 0x138a <__stop_program>
