
Maze_solver.elf:     file format elf32-avr

Sections:
Idx Name          Size      VMA       LMA       File off  Algn
  0 .data         000000a4  00800100  00001220  000012b4  2**0
                  CONTENTS, ALLOC, LOAD, DATA
  1 .text         00001220  00000000  00000000  00000094  2**1
                  CONTENTS, ALLOC, LOAD, READONLY, CODE
  2 .bss          00000012  008001a4  008001a4  00001358  2**0
                  ALLOC
  3 .comment      0000005c  00000000  00000000  00001358  2**0
                  CONTENTS, READONLY
  4 .note.gnu.avr.deviceinfo 00000040  00000000  00000000  000013b4  2**2
                  CONTENTS, READONLY
  5 .debug_aranges 000000e0  00000000  00000000  000013f4  2**0
                  CONTENTS, READONLY, DEBUGGING
  6 .debug_info   00001145  00000000  00000000  000014d4  2**0
                  CONTENTS, READONLY, DEBUGGING
  7 .debug_abbrev 00000a7d  00000000  00000000  00002619  2**0
                  CONTENTS, READONLY, DEBUGGING
  8 .debug_line   00000aa0  00000000  00000000  00003096  2**0
                  CONTENTS, READONLY, DEBUGGING
  9 .debug_frame  0000020c  00000000  00000000  00003b38  2**2
                  CONTENTS, READONLY, DEBUGGING
 10 .debug_str    000006cb  00000000  00000000  00003d44  2**0
                  CONTENTS, READONLY, DEBUGGING
 11 .debug_loc    0000061c  00000000  00000000  0000440f  2**0
                  CONTENTS, READONLY, DEBUGGING
 12 .debug_ranges 000000a0  00000000  00000000  00004a2b  2**0
                  CONTENTS, READONLY, DEBUGGING

Disassembly of section .text:

00000000 <__vectors>:
       0:	0c 94 34 00 	jmp	0x68	; 0x68 <__ctors_end>
       4:	0c 94 51 00 	jmp	0xa2	; 0xa2 <__bad_interrupt>
       8:	0c 94 51 00 	jmp	0xa2	; 0xa2 <__bad_interrupt>
       c:	0c 94 51 00 	jmp	0xa2	; 0xa2 <__bad_interrupt>
      10:	0c 94 51 00 	jmp	0xa2	; 0xa2 <__bad_interrupt>
      14:	0c 94 51 00 	jmp	0xa2	; 0xa2 <__bad_interrupt>
      18:	0c 94 51 00 	jmp	0xa2	; 0xa2 <__bad_interrupt>
      1c:	0c 94 51 00 	jmp	0xa2	; 0xa2 <__bad_interrupt>
      20:	0c 94 51 00 	jmp	0xa2	; 0xa2 <__bad_interrupt>
      24:	0c 94 51 00 	jmp	0xa2	; 0xa2 <__bad_interrupt>
      28:	0c 94 51 00 	jmp	0xa2	; 0xa2 <__bad_interrupt>
      2c:	0c 94 b4 02 	jmp	0x568	; 0x568 <__vector_11>
      30:	0c 94 51 00 	jmp	0xa2	; 0xa2 <__bad_interrupt>
      34:	0c 94 51 00 	jmp	0xa2	; 0xa2 <__bad_interrupt>
      38:	0c 94 51 00 	jmp	0xa2	; 0xa2 <__bad_interrupt>
      3c:	0c 94 51 00 	jmp	0xa2	; 0xa2 <__bad_interrupt>
      40:	0c 94 51 00 	jmp	0xa2	; 0xa2 <__bad_interrupt>
      44:	0c 94 51 00 	jmp	0xa2	; 0xa2 <__bad_interrupt>
      48:	0c 94 51 00 	jmp	0xa2	; 0xa2 <__bad_interrupt>
      4c:	0c 94 51 00 	jmp	0xa2	; 0xa2 <__bad_interrupt>
      50:	0c 94 51 00 	jmp	0xa2	; 0xa2 <__bad_interrupt>
      54:	0c 94 51 00 	jmp	0xa2	; 0xa2 <__bad_interrupt>
      58:	0c 94 51 00 	jmp	0xa2	; 0xa2 <__bad_interrupt>
      5c:	0c 94 51 00 	jmp	0xa2	; 0xa2 <__bad_interrupt>
      60:	0c 94 51 00 	jmp	0xa2	; 0xa2 <__bad_interrupt>
      64:	0c 94 51 00 	jmp	0xa2	; 0xa2 <__bad_interrupt>

00000068 <__ctors_end>:
      68:	11 24       	eor	r1, r1
      6a:	1f be       	out	0x3f, r1	; 63
      6c:	cf ef       	ldi	r28, 0xFF	; 255
      6e:	d8 e0       	ldi	r29, 0x08	; 8
      70:	de bf       	out	0x3e, r29	; 62
      72:	cd bf       	out	0x3d, r28	; 61

00000074 <__do_copy_data>:
      74:	11 e0       	ldi	r17, 0x01	; 1
      76:	a0 e0       	ldi	r26, 0x00	; 0
      78:	b1 e0       	ldi	r27, 0x01	; 1
      7a:	e0 e2       	ldi	r30, 0x20	; 32
      7c:	f2 e1       	ldi	r31, 0x12	; 18
      7e:	02 c0       	rjmp	.+4      	; 0x84 <__do_copy_data+0x10>
      80:	05 90       	lpm	r0, Z+
      82:	0d 92       	st	X+, r0
      84:	a4 3a       	cpi	r26, 0xA4	; 164
      86:	b1 07       	cpc	r27, r17
      88:	d9 f7       	brne	.-10     	; 0x80 <__do_copy_data+0xc>

0000008a <__do_clear_bss>:
      8a:	21 e0       	ldi	r18, 0x01	; 1
      8c:	a4 ea       	ldi	r26, 0xA4	; 164
      8e:	b1 e0       	ldi	r27, 0x01	; 1
      90:	01 c0       	rjmp	.+2      	; 0x94 <.do_clear_bss_start>

00000092 <.do_clear_bss_loop>:
      92:	1d 92       	st	X+, r1

00000094 <.do_clear_bss_start>:
      94:	a6 3b       	cpi	r26, 0xB6	; 182
      96:	b2 07       	cpc	r27, r18
      98:	e1 f7       	brne	.-8      	; 0x92 <.do_clear_bss_loop>
      9a:	0e 94 53 00 	call	0xa6	; 0xa6 <main>
      9e:	0c 94 0e 09 	jmp	0x121c	; 0x121c <_exit>

000000a2 <__bad_interrupt>:
      a2:	0c 94 00 00 	jmp	0	; 0x0 <__vectors>

000000a6 <main>:
int originalF = 0;
int count = 0;

int main(void)
{
	set_pins();
      a6:	0e 94 9a 03 	call	0x734	; 0x734 <set_pins>
		
	uart_init();
      aa:	0e 94 db 03 	call	0x7b6	; 0x7b6 <uart_init>
	io_redirect();
      ae:	0e 94 ec 03 	call	0x7d8	; 0x7d8 <io_redirect>
	DIS_F = 30;
	
    while (1) 
    {
		int PWM = 100;
		FrontSensor = ultrasound_sensor(U_FRONT);
      b2:	80 e0       	ldi	r24, 0x00	; 0
      b4:	0e 94 25 03 	call	0x64a	; 0x64a <ultrasound_sensor>
      b8:	ec 01       	movw	r28, r24
		RightSensor = ultrasound_sensor(U_RIGHT);
      ba:	82 e0       	ldi	r24, 0x02	; 2
      bc:	0e 94 25 03 	call	0x64a	; 0x64a <ultrasound_sensor>
      c0:	8c 01       	movw	r16, r24
		LeftSensor = ultrasound_sensor(U_LEFT);
      c2:	81 e0       	ldi	r24, 0x01	; 1
      c4:	0e 94 25 03 	call	0x64a	; 0x64a <ultrasound_sensor>
      c8:	7c 01       	movw	r14, r24
		
		printf("Front: %d\n", FrontSensor);
      ca:	df 93       	push	r29
      cc:	cf 93       	push	r28
      ce:	8c e1       	ldi	r24, 0x1C	; 28
      d0:	91 e0       	ldi	r25, 0x01	; 1
      d2:	9f 93       	push	r25
      d4:	8f 93       	push	r24
      d6:	0e 94 00 06 	call	0xc00	; 0xc00 <printf>
		printf("Left: %d\n", LeftSensor);
      da:	ff 92       	push	r15
      dc:	ef 92       	push	r14
      de:	87 e2       	ldi	r24, 0x27	; 39
      e0:	91 e0       	ldi	r25, 0x01	; 1
      e2:	9f 93       	push	r25
      e4:	8f 93       	push	r24
      e6:	0e 94 00 06 	call	0xc00	; 0xc00 <printf>
		printf("Right: %d\n\n", RightSensor);	
      ea:	1f 93       	push	r17
      ec:	0f 93       	push	r16
      ee:	81 e3       	ldi	r24, 0x31	; 49
      f0:	91 e0       	ldi	r25, 0x01	; 1
      f2:	9f 93       	push	r25
      f4:	8f 93       	push	r24
      f6:	0e 94 00 06 	call	0xc00	; 0xc00 <printf>
		
		
		//There are seven cases our robot can come into contact with a obstacle and needs to avoid it
		
		//Case 1: When all three walls are within the defined range
		if (FrontSensor < DIS_F && RightSensor < DIS && LeftSensor < DIS)
      fa:	8d b7       	in	r24, 0x3d	; 61
      fc:	9e b7       	in	r25, 0x3e	; 62
      fe:	0c 96       	adiw	r24, 0x0c	; 12
     100:	0f b6       	in	r0, 0x3f	; 63
     102:	f8 94       	cli
     104:	9e bf       	out	0x3e, r25	; 62
     106:	0f be       	out	0x3f, r0	; 63
     108:	8d bf       	out	0x3d, r24	; 61
     10a:	ce 31       	cpi	r28, 0x1E	; 30
     10c:	d1 05       	cpc	r29, r1
     10e:	08 f0       	brcs	.+2      	; 0x112 <main+0x6c>
     110:	4e c0       	rjmp	.+156    	; 0x1ae <main+0x108>
     112:	04 31       	cpi	r16, 0x14	; 20
     114:	11 05       	cpc	r17, r1
     116:	08 f0       	brcs	.+2      	; 0x11a <main+0x74>
     118:	4a c0       	rjmp	.+148    	; 0x1ae <main+0x108>
     11a:	94 e1       	ldi	r25, 0x14	; 20
     11c:	e9 16       	cp	r14, r25
     11e:	f1 04       	cpc	r15, r1
     120:	08 f0       	brcs	.+2      	; 0x124 <main+0x7e>
     122:	45 c0       	rjmp	.+138    	; 0x1ae <main+0x108>
		{
			printf("All three walls wrong\n");
     124:	8d e3       	ldi	r24, 0x3D	; 61
     126:	91 e0       	ldi	r25, 0x01	; 1
     128:	0e 94 16 06 	call	0xc2c	; 0xc2c <puts>
			if (RightSensor > LeftSensor)
     12c:	e0 16       	cp	r14, r16
     12e:	f1 06       	cpc	r15, r17
     130:	f8 f4       	brcc	.+62     	; 0x170 <main+0xca>
			{
							select_motor_direction(STOP, PWM);
     132:	64 e6       	ldi	r22, 0x64	; 100
     134:	84 e0       	ldi	r24, 0x04	; 4
     136:	0e 94 3d 02 	call	0x47a	; 0x47a <select_motor_direction>
							printf("STOPPPPP\n");
     13a:	83 e5       	ldi	r24, 0x53	; 83
     13c:	91 e0       	ldi	r25, 0x01	; 1
     13e:	0e 94 16 06 	call	0xc2c	; 0xc2c <puts>
	#else
		//round up by default
		__ticks_dc = (uint32_t)(ceil(fabs(__tmp)));
	#endif

	__builtin_avr_delay_cycles(__ticks_dc);
     142:	2f ef       	ldi	r18, 0xFF	; 255
     144:	83 ed       	ldi	r24, 0xD3	; 211
     146:	90 e3       	ldi	r25, 0x30	; 48
     148:	21 50       	subi	r18, 0x01	; 1
     14a:	80 40       	sbci	r24, 0x00	; 0
     14c:	90 40       	sbci	r25, 0x00	; 0
     14e:	e1 f7       	brne	.-8      	; 0x148 <main+0xa2>
     150:	00 c0       	rjmp	.+0      	; 0x152 <main+0xac>
     152:	00 00       	nop
							_delay_ms(1000);
				select_motor_direction(RIGHT, PWM);
     154:	64 e6       	ldi	r22, 0x64	; 100
     156:	83 e0       	ldi	r24, 0x03	; 3
     158:	0e 94 3d 02 	call	0x47a	; 0x47a <select_motor_direction>
     15c:	2f ef       	ldi	r18, 0xFF	; 255
     15e:	83 ed       	ldi	r24, 0xD3	; 211
     160:	90 e3       	ldi	r25, 0x30	; 48
     162:	21 50       	subi	r18, 0x01	; 1
     164:	80 40       	sbci	r24, 0x00	; 0
     166:	90 40       	sbci	r25, 0x00	; 0
     168:	e1 f7       	brne	.-8      	; 0x162 <main+0xbc>
     16a:	00 c0       	rjmp	.+0      	; 0x16c <main+0xc6>
     16c:	00 00       	nop
     16e:	a1 cf       	rjmp	.-190    	; 0xb2 <main+0xc>
				_delay_ms(_180_degrees); //Time to turn the robot 180degrees
			} 
			else
			{
							select_motor_direction(STOP, PWM);
     170:	64 e6       	ldi	r22, 0x64	; 100
     172:	84 e0       	ldi	r24, 0x04	; 4
     174:	0e 94 3d 02 	call	0x47a	; 0x47a <select_motor_direction>
							printf("STOPPPPP\n");
     178:	83 e5       	ldi	r24, 0x53	; 83
     17a:	91 e0       	ldi	r25, 0x01	; 1
     17c:	0e 94 16 06 	call	0xc2c	; 0xc2c <puts>
     180:	2f ef       	ldi	r18, 0xFF	; 255
     182:	83 ed       	ldi	r24, 0xD3	; 211
     184:	90 e3       	ldi	r25, 0x30	; 48
     186:	21 50       	subi	r18, 0x01	; 1
     188:	80 40       	sbci	r24, 0x00	; 0
     18a:	90 40       	sbci	r25, 0x00	; 0
     18c:	e1 f7       	brne	.-8      	; 0x186 <main+0xe0>
     18e:	00 c0       	rjmp	.+0      	; 0x190 <main+0xea>
     190:	00 00       	nop
							_delay_ms(1000);
				select_motor_direction(LEFT, PWM);
     192:	64 e6       	ldi	r22, 0x64	; 100
     194:	82 e0       	ldi	r24, 0x02	; 2
     196:	0e 94 3d 02 	call	0x47a	; 0x47a <select_motor_direction>
     19a:	2f ef       	ldi	r18, 0xFF	; 255
     19c:	83 ed       	ldi	r24, 0xD3	; 211
     19e:	90 e3       	ldi	r25, 0x30	; 48
     1a0:	21 50       	subi	r18, 0x01	; 1
     1a2:	80 40       	sbci	r24, 0x00	; 0
     1a4:	90 40       	sbci	r25, 0x00	; 0
     1a6:	e1 f7       	brne	.-8      	; 0x1a0 <main+0xfa>
     1a8:	00 c0       	rjmp	.+0      	; 0x1aa <main+0x104>
     1aa:	00 00       	nop
     1ac:	82 cf       	rjmp	.-252    	; 0xb2 <main+0xc>
				_delay_ms(_180_degrees);
			}
		}
		
		//Case 2: When front is block
		else if (FrontSensor < DIS_F && RightSensor > DIS && LeftSensor > DIS)
     1ae:	ce 31       	cpi	r28, 0x1E	; 30
     1b0:	d1 05       	cpc	r29, r1
     1b2:	08 f0       	brcs	.+2      	; 0x1b6 <main+0x110>
     1b4:	4e c0       	rjmp	.+156    	; 0x252 <main+0x1ac>
     1b6:	05 31       	cpi	r16, 0x15	; 21
     1b8:	11 05       	cpc	r17, r1
     1ba:	08 f4       	brcc	.+2      	; 0x1be <main+0x118>
     1bc:	4a c0       	rjmp	.+148    	; 0x252 <main+0x1ac>
     1be:	25 e1       	ldi	r18, 0x15	; 21
     1c0:	e2 16       	cp	r14, r18
     1c2:	f1 04       	cpc	r15, r1
     1c4:	08 f4       	brcc	.+2      	; 0x1c8 <main+0x122>
     1c6:	45 c0       	rjmp	.+138    	; 0x252 <main+0x1ac>
		{
			printf("Front wall ahead\n");
     1c8:	8c e5       	ldi	r24, 0x5C	; 92
     1ca:	91 e0       	ldi	r25, 0x01	; 1
     1cc:	0e 94 16 06 	call	0xc2c	; 0xc2c <puts>
			if (RightSensor > LeftSensor)
     1d0:	e0 16       	cp	r14, r16
     1d2:	f1 06       	cpc	r15, r17
     1d4:	f8 f4       	brcc	.+62     	; 0x214 <main+0x16e>
			{
							select_motor_direction(STOP, PWM);
     1d6:	64 e6       	ldi	r22, 0x64	; 100
     1d8:	84 e0       	ldi	r24, 0x04	; 4
     1da:	0e 94 3d 02 	call	0x47a	; 0x47a <select_motor_direction>
							printf("STOPPPPP\n");
     1de:	83 e5       	ldi	r24, 0x53	; 83
     1e0:	91 e0       	ldi	r25, 0x01	; 1
     1e2:	0e 94 16 06 	call	0xc2c	; 0xc2c <puts>
     1e6:	8f ef       	ldi	r24, 0xFF	; 255
     1e8:	93 ed       	ldi	r25, 0xD3	; 211
     1ea:	20 e3       	ldi	r18, 0x30	; 48
     1ec:	81 50       	subi	r24, 0x01	; 1
     1ee:	90 40       	sbci	r25, 0x00	; 0
     1f0:	20 40       	sbci	r18, 0x00	; 0
     1f2:	e1 f7       	brne	.-8      	; 0x1ec <main+0x146>
     1f4:	00 c0       	rjmp	.+0      	; 0x1f6 <main+0x150>
     1f6:	00 00       	nop
							_delay_ms(1000);
				select_motor_direction(RIGHT, PWM);
     1f8:	64 e6       	ldi	r22, 0x64	; 100
     1fa:	83 e0       	ldi	r24, 0x03	; 3
     1fc:	0e 94 3d 02 	call	0x47a	; 0x47a <select_motor_direction>
     200:	8f ef       	ldi	r24, 0xFF	; 255
     202:	9a ed       	ldi	r25, 0xDA	; 218
     204:	2a e1       	ldi	r18, 0x1A	; 26
     206:	81 50       	subi	r24, 0x01	; 1
     208:	90 40       	sbci	r25, 0x00	; 0
     20a:	20 40       	sbci	r18, 0x00	; 0
     20c:	e1 f7       	brne	.-8      	; 0x206 <main+0x160>
     20e:	00 c0       	rjmp	.+0      	; 0x210 <main+0x16a>
     210:	00 00       	nop
     212:	4f cf       	rjmp	.-354    	; 0xb2 <main+0xc>
				_delay_ms(_90_degrees);
			} 
			else
			{
							select_motor_direction(STOP, PWM);
     214:	64 e6       	ldi	r22, 0x64	; 100
     216:	84 e0       	ldi	r24, 0x04	; 4
     218:	0e 94 3d 02 	call	0x47a	; 0x47a <select_motor_direction>
							printf("STOPPPPP\n");
     21c:	83 e5       	ldi	r24, 0x53	; 83
     21e:	91 e0       	ldi	r25, 0x01	; 1
     220:	0e 94 16 06 	call	0xc2c	; 0xc2c <puts>
     224:	8f ef       	ldi	r24, 0xFF	; 255
     226:	93 ed       	ldi	r25, 0xD3	; 211
     228:	20 e3       	ldi	r18, 0x30	; 48
     22a:	81 50       	subi	r24, 0x01	; 1
     22c:	90 40       	sbci	r25, 0x00	; 0
     22e:	20 40       	sbci	r18, 0x00	; 0
     230:	e1 f7       	brne	.-8      	; 0x22a <main+0x184>
     232:	00 c0       	rjmp	.+0      	; 0x234 <main+0x18e>
     234:	00 00       	nop
							_delay_ms(1000);
				select_motor_direction(LEFT, PWM);
     236:	64 e6       	ldi	r22, 0x64	; 100
     238:	82 e0       	ldi	r24, 0x02	; 2
     23a:	0e 94 3d 02 	call	0x47a	; 0x47a <select_motor_direction>
     23e:	8f ef       	ldi	r24, 0xFF	; 255
     240:	9a ed       	ldi	r25, 0xDA	; 218
     242:	2a e1       	ldi	r18, 0x1A	; 26
     244:	81 50       	subi	r24, 0x01	; 1
     246:	90 40       	sbci	r25, 0x00	; 0
     248:	20 40       	sbci	r18, 0x00	; 0
     24a:	e1 f7       	brne	.-8      	; 0x244 <main+0x19e>
     24c:	00 c0       	rjmp	.+0      	; 0x24e <main+0x1a8>
     24e:	00 00       	nop
     250:	30 cf       	rjmp	.-416    	; 0xb2 <main+0xc>
			select_motor_direction(FORWARD);
		}
		*/
		//Case 5: When the front and left is blocked
		
		else if (FrontSensor < (DIS_F+20) && RightSensor > DIS && LeftSensor < DIS)
     252:	c2 33       	cpi	r28, 0x32	; 50
     254:	d1 05       	cpc	r29, r1
     256:	78 f5       	brcc	.+94     	; 0x2b6 <main+0x210>
     258:	05 31       	cpi	r16, 0x15	; 21
     25a:	11 05       	cpc	r17, r1
     25c:	60 f1       	brcs	.+88     	; 0x2b6 <main+0x210>
     25e:	84 e1       	ldi	r24, 0x14	; 20
     260:	e8 16       	cp	r14, r24
     262:	f1 04       	cpc	r15, r1
     264:	40 f5       	brcc	.+80     	; 0x2b6 <main+0x210>
		{
			select_motor_direction(STOP, PWM);
     266:	64 e6       	ldi	r22, 0x64	; 100
     268:	84 e0       	ldi	r24, 0x04	; 4
     26a:	0e 94 3d 02 	call	0x47a	; 0x47a <select_motor_direction>
			printf("STOPPPPPright\n");
     26e:	8d e6       	ldi	r24, 0x6D	; 109
     270:	91 e0       	ldi	r25, 0x01	; 1
     272:	0e 94 16 06 	call	0xc2c	; 0xc2c <puts>
     276:	9f ef       	ldi	r25, 0xFF	; 255
     278:	23 ed       	ldi	r18, 0xD3	; 211
     27a:	80 e3       	ldi	r24, 0x30	; 48
     27c:	91 50       	subi	r25, 0x01	; 1
     27e:	20 40       	sbci	r18, 0x00	; 0
     280:	80 40       	sbci	r24, 0x00	; 0
     282:	e1 f7       	brne	.-8      	; 0x27c <main+0x1d6>
     284:	00 c0       	rjmp	.+0      	; 0x286 <main+0x1e0>
     286:	00 00       	nop
			_delay_ms(1000);
			
			select_motor_direction(LEFT, 50); //MAKE SURE THE WIRING IS CORRECT
     288:	62 e3       	ldi	r22, 0x32	; 50
     28a:	82 e0       	ldi	r24, 0x02	; 2
     28c:	0e 94 3d 02 	call	0x47a	; 0x47a <select_motor_direction>
			printf("lol\n");
     290:	8b e7       	ldi	r24, 0x7B	; 123
     292:	91 e0       	ldi	r25, 0x01	; 1
     294:	0e 94 16 06 	call	0xc2c	; 0xc2c <puts>
			opto_turn(4, OP_LEFT);
     298:	62 e0       	ldi	r22, 0x02	; 2
     29a:	70 e0       	ldi	r23, 0x00	; 0
     29c:	84 e0       	ldi	r24, 0x04	; 4
     29e:	90 e0       	ldi	r25, 0x00	; 0
     2a0:	0e 94 95 01 	call	0x32a	; 0x32a <opto_turn>
			printf("lol2\n");
     2a4:	8f e7       	ldi	r24, 0x7F	; 127
     2a6:	91 e0       	ldi	r25, 0x01	; 1
     2a8:	0e 94 16 06 	call	0xc2c	; 0xc2c <puts>
			select_motor_direction(STOP, PWM);
     2ac:	64 e6       	ldi	r22, 0x64	; 100
     2ae:	84 e0       	ldi	r24, 0x04	; 4
     2b0:	0e 94 3d 02 	call	0x47a	; 0x47a <select_motor_direction>
     2b4:	fe ce       	rjmp	.-516    	; 0xb2 <main+0xc>
			
		}
		//Case 6: When the front and right is blocked
		else if (FrontSensor < DIS_F && RightSensor < DIS && LeftSensor > DIS)
     2b6:	6e 97       	sbiw	r28, 0x1e	; 30
     2b8:	78 f5       	brcc	.+94     	; 0x318 <main+0x272>
     2ba:	04 31       	cpi	r16, 0x14	; 20
     2bc:	11 05       	cpc	r17, r1
     2be:	60 f5       	brcc	.+88     	; 0x318 <main+0x272>
     2c0:	95 e1       	ldi	r25, 0x15	; 21
     2c2:	e9 16       	cp	r14, r25
     2c4:	f1 04       	cpc	r15, r1
     2c6:	40 f1       	brcs	.+80     	; 0x318 <main+0x272>
		{
			select_motor_direction(STOP, PWM);
     2c8:	64 e6       	ldi	r22, 0x64	; 100
     2ca:	84 e0       	ldi	r24, 0x04	; 4
     2cc:	0e 94 3d 02 	call	0x47a	; 0x47a <select_motor_direction>
			printf("STOPPPPPleft\n");
     2d0:	84 e8       	ldi	r24, 0x84	; 132
     2d2:	91 e0       	ldi	r25, 0x01	; 1
     2d4:	0e 94 16 06 	call	0xc2c	; 0xc2c <puts>
     2d8:	2f ef       	ldi	r18, 0xFF	; 255
     2da:	83 ed       	ldi	r24, 0xD3	; 211
     2dc:	90 e3       	ldi	r25, 0x30	; 48
     2de:	21 50       	subi	r18, 0x01	; 1
     2e0:	80 40       	sbci	r24, 0x00	; 0
     2e2:	90 40       	sbci	r25, 0x00	; 0
     2e4:	e1 f7       	brne	.-8      	; 0x2de <main+0x238>
     2e6:	00 c0       	rjmp	.+0      	; 0x2e8 <main+0x242>
     2e8:	00 00       	nop
			_delay_ms(1000);
			
			select_motor_direction(RIGHT, 50); //MAKE SURE THE WIRING IS GOOD
     2ea:	62 e3       	ldi	r22, 0x32	; 50
     2ec:	83 e0       	ldi	r24, 0x03	; 3
     2ee:	0e 94 3d 02 	call	0x47a	; 0x47a <select_motor_direction>
			printf("lol\n");
     2f2:	8b e7       	ldi	r24, 0x7B	; 123
     2f4:	91 e0       	ldi	r25, 0x01	; 1
     2f6:	0e 94 16 06 	call	0xc2c	; 0xc2c <puts>
			opto_turn(4, OP_RIGHT);
     2fa:	63 e0       	ldi	r22, 0x03	; 3
     2fc:	70 e0       	ldi	r23, 0x00	; 0
     2fe:	84 e0       	ldi	r24, 0x04	; 4
     300:	90 e0       	ldi	r25, 0x00	; 0
     302:	0e 94 95 01 	call	0x32a	; 0x32a <opto_turn>
			printf("lol2\n");
     306:	8f e7       	ldi	r24, 0x7F	; 127
     308:	91 e0       	ldi	r25, 0x01	; 1
     30a:	0e 94 16 06 	call	0xc2c	; 0xc2c <puts>
			select_motor_direction(STOP, PWM);
     30e:	64 e6       	ldi	r22, 0x64	; 100
     310:	84 e0       	ldi	r24, 0x04	; 4
     312:	0e 94 3d 02 	call	0x47a	; 0x47a <select_motor_direction>
     316:	cd ce       	rjmp	.-614    	; 0xb2 <main+0xc>
		}
		
		//Case 7: If the sides are small but the front is free or all sides are free then move forward
		else
		{
			printf("Everything is ok!\n");
     318:	81 e9       	ldi	r24, 0x91	; 145
     31a:	91 e0       	ldi	r25, 0x01	; 1
     31c:	0e 94 16 06 	call	0xc2c	; 0xc2c <puts>
			select_motor_direction(FORWARD, PWM);
     320:	64 e6       	ldi	r22, 0x64	; 100
     322:	80 e0       	ldi	r24, 0x00	; 0
     324:	0e 94 3d 02 	call	0x47a	; 0x47a <select_motor_direction>
     328:	c4 ce       	rjmp	.-632    	; 0xb2 <main+0xc>

0000032a <opto_turn>:
     32a:	cf 92       	push	r12
     32c:	df 92       	push	r13
     32e:	ef 92       	push	r14
     330:	ff 92       	push	r15
     332:	1f 93       	push	r17
     334:	cf 93       	push	r28
     336:	df 93       	push	r29
     338:	ec 01       	movw	r28, r24
     33a:	16 2f       	mov	r17, r22
     33c:	10 92 a5 01 	sts	0x01A5, r1	; 0x8001a5 <__data_end+0x1>
     340:	10 92 a4 01 	sts	0x01A4, r1	; 0x8001a4 <__data_end>
     344:	80 c0       	rjmp	.+256    	; 0x446 <__EEPROM_REGION_LENGTH__+0x46>
     346:	89 b1       	in	r24, 0x09	; 9
     348:	90 e0       	ldi	r25, 0x00	; 0
     34a:	01 2e       	mov	r0, r17
     34c:	02 c0       	rjmp	.+4      	; 0x352 <opto_turn+0x28>
     34e:	95 95       	asr	r25
     350:	87 95       	ror	r24
     352:	0a 94       	dec	r0
     354:	e2 f7       	brpl	.-8      	; 0x34e <opto_turn+0x24>
     356:	80 ff       	sbrs	r24, 0
     358:	63 c0       	rjmp	.+198    	; 0x420 <__EEPROM_REGION_LENGTH__+0x20>
     35a:	89 b1       	in	r24, 0x09	; 9
     35c:	90 e0       	ldi	r25, 0x00	; 0
     35e:	01 2e       	mov	r0, r17
     360:	02 c0       	rjmp	.+4      	; 0x366 <opto_turn+0x3c>
     362:	95 95       	asr	r25
     364:	87 95       	ror	r24
     366:	0a 94       	dec	r0
     368:	e2 f7       	brpl	.-8      	; 0x362 <opto_turn+0x38>
     36a:	80 fd       	sbrc	r24, 0
     36c:	10 c0       	rjmp	.+32     	; 0x38e <opto_turn+0x64>
     36e:	58 c0       	rjmp	.+176    	; 0x420 <__EEPROM_REGION_LENGTH__+0x20>
     370:	8f e9       	ldi	r24, 0x9F	; 159
     372:	9f e0       	ldi	r25, 0x0F	; 15
     374:	01 97       	sbiw	r24, 0x01	; 1
     376:	f1 f7       	brne	.-4      	; 0x374 <opto_turn+0x4a>
     378:	00 c0       	rjmp	.+0      	; 0x37a <opto_turn+0x50>
     37a:	00 00       	nop
     37c:	80 91 ac 01 	lds	r24, 0x01AC	; 0x8001ac <count_opto>
     380:	90 91 ad 01 	lds	r25, 0x01AD	; 0x8001ad <count_opto+0x1>
     384:	01 96       	adiw	r24, 0x01	; 1
     386:	90 93 ad 01 	sts	0x01AD, r25	; 0x8001ad <count_opto+0x1>
     38a:	80 93 ac 01 	sts	0x01AC, r24	; 0x8001ac <count_opto>
     38e:	89 b1       	in	r24, 0x09	; 9
     390:	90 e0       	ldi	r25, 0x00	; 0
     392:	01 2e       	mov	r0, r17
     394:	02 c0       	rjmp	.+4      	; 0x39a <opto_turn+0x70>
     396:	95 95       	asr	r25
     398:	87 95       	ror	r24
     39a:	0a 94       	dec	r0
     39c:	e2 f7       	brpl	.-8      	; 0x396 <opto_turn+0x6c>
     39e:	80 fd       	sbrc	r24, 0
     3a0:	e7 cf       	rjmp	.-50     	; 0x370 <opto_turn+0x46>
     3a2:	60 91 ac 01 	lds	r22, 0x01AC	; 0x8001ac <count_opto>
     3a6:	70 91 ad 01 	lds	r23, 0x01AD	; 0x8001ad <count_opto+0x1>
     3aa:	07 2e       	mov	r0, r23
     3ac:	00 0c       	add	r0, r0
     3ae:	88 0b       	sbc	r24, r24
     3b0:	99 0b       	sbc	r25, r25
     3b2:	0e 94 07 05 	call	0xa0e	; 0xa0e <__floatsisf>
     3b6:	6b 01       	movw	r12, r22
     3b8:	7c 01       	movw	r14, r24
     3ba:	60 91 aa 01 	lds	r22, 0x01AA	; 0x8001aa <count_off>
     3be:	70 91 ab 01 	lds	r23, 0x01AB	; 0x8001ab <count_off+0x1>
     3c2:	07 2e       	mov	r0, r23
     3c4:	00 0c       	add	r0, r0
     3c6:	88 0b       	sbc	r24, r24
     3c8:	99 0b       	sbc	r25, r25
     3ca:	0e 94 07 05 	call	0xa0e	; 0xa0e <__floatsisf>
     3ce:	9b 01       	movw	r18, r22
     3d0:	ac 01       	movw	r20, r24
     3d2:	c7 01       	movw	r24, r14
     3d4:	b6 01       	movw	r22, r12
     3d6:	0e 94 f8 03 	call	0x7f0	; 0x7f0 <__addsf3>
     3da:	20 e0       	ldi	r18, 0x00	; 0
     3dc:	30 e0       	ldi	r19, 0x00	; 0
     3de:	40 ec       	ldi	r20, 0xC0	; 192
     3e0:	50 e4       	ldi	r21, 0x40	; 64
     3e2:	0e 94 93 05 	call	0xb26	; 0xb26 <__mulsf3>
     3e6:	9b 01       	movw	r18, r22
     3e8:	ac 01       	movw	r20, r24
     3ea:	60 e0       	ldi	r22, 0x00	; 0
     3ec:	7c e7       	ldi	r23, 0x7C	; 124
     3ee:	82 e1       	ldi	r24, 0x12	; 18
     3f0:	99 e4       	ldi	r25, 0x49	; 73
     3f2:	0e 94 64 04 	call	0x8c8	; 0x8c8 <__divsf3>
     3f6:	60 93 a6 01 	sts	0x01A6, r22	; 0x8001a6 <rpm>
     3fa:	70 93 a7 01 	sts	0x01A7, r23	; 0x8001a7 <rpm+0x1>
     3fe:	80 93 a8 01 	sts	0x01A8, r24	; 0x8001a8 <rpm+0x2>
     402:	90 93 a9 01 	sts	0x01A9, r25	; 0x8001a9 <rpm+0x3>
     406:	80 91 a4 01 	lds	r24, 0x01A4	; 0x8001a4 <__data_end>
     40a:	90 91 a5 01 	lds	r25, 0x01A5	; 0x8001a5 <__data_end+0x1>
     40e:	01 96       	adiw	r24, 0x01	; 1
     410:	90 93 a5 01 	sts	0x01A5, r25	; 0x8001a5 <__data_end+0x1>
     414:	80 93 a4 01 	sts	0x01A4, r24	; 0x8001a4 <__data_end>
     418:	10 92 ab 01 	sts	0x01AB, r1	; 0x8001ab <count_off+0x1>
     41c:	10 92 aa 01 	sts	0x01AA, r1	; 0x8001aa <count_off>
     420:	8f e9       	ldi	r24, 0x9F	; 159
     422:	9f e0       	ldi	r25, 0x0F	; 15
     424:	01 97       	sbiw	r24, 0x01	; 1
     426:	f1 f7       	brne	.-4      	; 0x424 <__EEPROM_REGION_LENGTH__+0x24>
     428:	00 c0       	rjmp	.+0      	; 0x42a <__EEPROM_REGION_LENGTH__+0x2a>
     42a:	00 00       	nop
     42c:	80 91 aa 01 	lds	r24, 0x01AA	; 0x8001aa <count_off>
     430:	90 91 ab 01 	lds	r25, 0x01AB	; 0x8001ab <count_off+0x1>
     434:	01 96       	adiw	r24, 0x01	; 1
     436:	90 93 ab 01 	sts	0x01AB, r25	; 0x8001ab <count_off+0x1>
     43a:	80 93 aa 01 	sts	0x01AA, r24	; 0x8001aa <count_off>
     43e:	10 92 ad 01 	sts	0x01AD, r1	; 0x8001ad <count_opto+0x1>
     442:	10 92 ac 01 	sts	0x01AC, r1	; 0x8001ac <count_opto>
     446:	80 91 a4 01 	lds	r24, 0x01A4	; 0x8001a4 <__data_end>
     44a:	90 91 a5 01 	lds	r25, 0x01A5	; 0x8001a5 <__data_end+0x1>
     44e:	8c 17       	cp	r24, r28
     450:	9d 07       	cpc	r25, r29
     452:	0c f4       	brge	.+2      	; 0x456 <__EEPROM_REGION_LENGTH__+0x56>
     454:	78 cf       	rjmp	.-272    	; 0x346 <opto_turn+0x1c>
     456:	df 91       	pop	r29
     458:	cf 91       	pop	r28
     45a:	1f 91       	pop	r17
     45c:	ff 90       	pop	r15
     45e:	ef 90       	pop	r14
     460:	df 90       	pop	r13
     462:	cf 90       	pop	r12
     464:	08 95       	ret

00000466 <setup_motors>:
     466:	84 b5       	in	r24, 0x24	; 36
     468:	81 60       	ori	r24, 0x01	; 1
     46a:	84 bd       	out	0x24, r24	; 36
     46c:	84 b5       	in	r24, 0x24	; 36
     46e:	80 6a       	ori	r24, 0xA0	; 160
     470:	84 bd       	out	0x24, r24	; 36
     472:	85 b5       	in	r24, 0x25	; 37
     474:	83 60       	ori	r24, 0x03	; 3
     476:	85 bd       	out	0x25, r24	; 37
     478:	08 95       	ret

0000047a <select_motor_direction>:
     47a:	cf 93       	push	r28
     47c:	df 93       	push	r29
     47e:	c8 2f       	mov	r28, r24
     480:	d6 2f       	mov	r29, r22
     482:	0e 94 33 02 	call	0x466	; 0x466 <setup_motors>
     486:	c2 30       	cpi	r28, 0x02	; 2
     488:	49 f1       	breq	.+82     	; 0x4dc <select_motor_direction+0x62>
     48a:	28 f4       	brcc	.+10     	; 0x496 <select_motor_direction+0x1c>
     48c:	cc 23       	and	r28, r28
     48e:	41 f0       	breq	.+16     	; 0x4a0 <select_motor_direction+0x26>
     490:	c1 30       	cpi	r28, 0x01	; 1
     492:	a9 f0       	breq	.+42     	; 0x4be <select_motor_direction+0x44>
     494:	4f c0       	rjmp	.+158    	; 0x534 <select_motor_direction+0xba>
     496:	c3 30       	cpi	r28, 0x03	; 3
     498:	81 f1       	breq	.+96     	; 0x4fa <select_motor_direction+0x80>
     49a:	c4 30       	cpi	r28, 0x04	; 4
     49c:	e9 f1       	breq	.+122    	; 0x518 <select_motor_direction+0x9e>
     49e:	4a c0       	rjmp	.+148    	; 0x534 <select_motor_direction+0xba>
     4a0:	8b b1       	in	r24, 0x0b	; 11
     4a2:	80 61       	ori	r24, 0x10	; 16
     4a4:	8b b9       	out	0x0b, r24	; 11
     4a6:	8b b1       	in	r24, 0x0b	; 11
     4a8:	8f 77       	andi	r24, 0x7F	; 127
     4aa:	8b b9       	out	0x0b, r24	; 11
     4ac:	85 b1       	in	r24, 0x05	; 5
     4ae:	81 60       	ori	r24, 0x01	; 1
     4b0:	85 b9       	out	0x05, r24	; 5
     4b2:	85 b1       	in	r24, 0x05	; 5
     4b4:	8d 7f       	andi	r24, 0xFD	; 253
     4b6:	85 b9       	out	0x05, r24	; 5
     4b8:	d7 bd       	out	0x27, r29	; 39
     4ba:	d8 bd       	out	0x28, r29	; 40
     4bc:	3b c0       	rjmp	.+118    	; 0x534 <select_motor_direction+0xba>
     4be:	8b b1       	in	r24, 0x0b	; 11
     4c0:	8f 7e       	andi	r24, 0xEF	; 239
     4c2:	8b b9       	out	0x0b, r24	; 11
     4c4:	8b b1       	in	r24, 0x0b	; 11
     4c6:	80 68       	ori	r24, 0x80	; 128
     4c8:	8b b9       	out	0x0b, r24	; 11
     4ca:	85 b1       	in	r24, 0x05	; 5
     4cc:	8e 7f       	andi	r24, 0xFE	; 254
     4ce:	85 b9       	out	0x05, r24	; 5
     4d0:	85 b1       	in	r24, 0x05	; 5
     4d2:	82 60       	ori	r24, 0x02	; 2
     4d4:	85 b9       	out	0x05, r24	; 5
     4d6:	d7 bd       	out	0x27, r29	; 39
     4d8:	d8 bd       	out	0x28, r29	; 40
     4da:	2c c0       	rjmp	.+88     	; 0x534 <select_motor_direction+0xba>
     4dc:	8b b1       	in	r24, 0x0b	; 11
     4de:	8f 7e       	andi	r24, 0xEF	; 239
     4e0:	8b b9       	out	0x0b, r24	; 11
     4e2:	8b b1       	in	r24, 0x0b	; 11
     4e4:	80 68       	ori	r24, 0x80	; 128
     4e6:	8b b9       	out	0x0b, r24	; 11
     4e8:	85 b1       	in	r24, 0x05	; 5
     4ea:	81 60       	ori	r24, 0x01	; 1
     4ec:	85 b9       	out	0x05, r24	; 5
     4ee:	85 b1       	in	r24, 0x05	; 5
     4f0:	8d 7f       	andi	r24, 0xFD	; 253
     4f2:	85 b9       	out	0x05, r24	; 5
     4f4:	d7 bd       	out	0x27, r29	; 39
     4f6:	d8 bd       	out	0x28, r29	; 40
     4f8:	1d c0       	rjmp	.+58     	; 0x534 <select_motor_direction+0xba>
     4fa:	8b b1       	in	r24, 0x0b	; 11
     4fc:	80 61       	ori	r24, 0x10	; 16
     4fe:	8b b9       	out	0x0b, r24	; 11
     500:	8b b1       	in	r24, 0x0b	; 11
     502:	8f 77       	andi	r24, 0x7F	; 127
     504:	8b b9       	out	0x0b, r24	; 11
     506:	85 b1       	in	r24, 0x05	; 5
     508:	8e 7f       	andi	r24, 0xFE	; 254
     50a:	85 b9       	out	0x05, r24	; 5
     50c:	85 b1       	in	r24, 0x05	; 5
     50e:	82 60       	ori	r24, 0x02	; 2
     510:	85 b9       	out	0x05, r24	; 5
     512:	d7 bd       	out	0x27, r29	; 39
     514:	d8 bd       	out	0x28, r29	; 40
     516:	0e c0       	rjmp	.+28     	; 0x534 <select_motor_direction+0xba>
     518:	8b b1       	in	r24, 0x0b	; 11
     51a:	8f 7e       	andi	r24, 0xEF	; 239
     51c:	8b b9       	out	0x0b, r24	; 11
     51e:	8b b1       	in	r24, 0x0b	; 11
     520:	8f 77       	andi	r24, 0x7F	; 127
     522:	8b b9       	out	0x0b, r24	; 11
     524:	85 b1       	in	r24, 0x05	; 5
     526:	8e 7f       	andi	r24, 0xFE	; 254
     528:	85 b9       	out	0x05, r24	; 5
     52a:	85 b1       	in	r24, 0x05	; 5
     52c:	8d 7f       	andi	r24, 0xFD	; 253
     52e:	85 b9       	out	0x05, r24	; 5
     530:	17 bc       	out	0x27, r1	; 39
     532:	18 bc       	out	0x28, r1	; 40
     534:	df 91       	pop	r29
     536:	cf 91       	pop	r28
     538:	08 95       	ret

0000053a <start_timer>:
     53a:	10 92 80 00 	sts	0x0080, r1	; 0x800080 <__TEXT_REGION_LENGTH__+0x7f8080>
     53e:	e1 e8       	ldi	r30, 0x81	; 129
     540:	f0 e0       	ldi	r31, 0x00	; 0
     542:	80 81       	ld	r24, Z
     544:	88 60       	ori	r24, 0x08	; 8
     546:	80 83       	st	Z, r24
     548:	8f e9       	ldi	r24, 0x9F	; 159
     54a:	90 e0       	ldi	r25, 0x00	; 0
     54c:	90 93 89 00 	sts	0x0089, r25	; 0x800089 <__TEXT_REGION_LENGTH__+0x7f8089>
     550:	80 93 88 00 	sts	0x0088, r24	; 0x800088 <__TEXT_REGION_LENGTH__+0x7f8088>
     554:	af e6       	ldi	r26, 0x6F	; 111
     556:	b0 e0       	ldi	r27, 0x00	; 0
     558:	8c 91       	ld	r24, X
     55a:	82 60       	ori	r24, 0x02	; 2
     55c:	8c 93       	st	X, r24
     55e:	78 94       	sei
     560:	80 81       	ld	r24, Z
     562:	81 60       	ori	r24, 0x01	; 1
     564:	80 83       	st	Z, r24
     566:	08 95       	ret

00000568 <__vector_11>:
     568:	1f 92       	push	r1
     56a:	0f 92       	push	r0
     56c:	0f b6       	in	r0, 0x3f	; 63
     56e:	0f 92       	push	r0
     570:	11 24       	eor	r1, r1
     572:	2f 93       	push	r18
     574:	8f 93       	push	r24
     576:	9f 93       	push	r25
     578:	80 91 ae 01 	lds	r24, 0x01AE	; 0x8001ae <ten_us_counter>
     57c:	90 91 af 01 	lds	r25, 0x01AF	; 0x8001af <ten_us_counter+0x1>
     580:	01 96       	adiw	r24, 0x01	; 1
     582:	90 93 af 01 	sts	0x01AF, r25	; 0x8001af <ten_us_counter+0x1>
     586:	80 93 ae 01 	sts	0x01AE, r24	; 0x8001ae <ten_us_counter>
     58a:	80 91 ae 01 	lds	r24, 0x01AE	; 0x8001ae <ten_us_counter>
     58e:	90 91 af 01 	lds	r25, 0x01AF	; 0x8001af <ten_us_counter+0x1>
     592:	89 3e       	cpi	r24, 0xE9	; 233
     594:	9d 4f       	sbci	r25, 0xFD	; 253
     596:	20 f0       	brcs	.+8      	; 0x5a0 <__vector_11+0x38>
     598:	10 92 af 01 	sts	0x01AF, r1	; 0x8001af <ten_us_counter+0x1>
     59c:	10 92 ae 01 	sts	0x01AE, r1	; 0x8001ae <ten_us_counter>
     5a0:	9f 91       	pop	r25
     5a2:	8f 91       	pop	r24
     5a4:	2f 91       	pop	r18
     5a6:	0f 90       	pop	r0
     5a8:	0f be       	out	0x3f, r0	; 63
     5aa:	0f 90       	pop	r0
     5ac:	1f 90       	pop	r1
     5ae:	18 95       	reti

000005b0 <stop_timer>:
     5b0:	10 92 81 00 	sts	0x0081, r1	; 0x800081 <__TEXT_REGION_LENGTH__+0x7f8081>
     5b4:	08 95       	ret

000005b6 <reset_prescaler>:
     5b6:	e1 eb       	ldi	r30, 0xB1	; 177
     5b8:	f0 e0       	ldi	r31, 0x00	; 0
     5ba:	80 81       	ld	r24, Z
     5bc:	8a 7f       	andi	r24, 0xFA	; 250
     5be:	80 83       	st	Z, r24
     5c0:	08 95       	ret

000005c2 <delay_ms>:
     5c2:	cf 93       	push	r28
     5c4:	df 93       	push	r29
     5c6:	ec 01       	movw	r28, r24
     5c8:	e0 eb       	ldi	r30, 0xB0	; 176
     5ca:	f0 e0       	ldi	r31, 0x00	; 0
     5cc:	80 81       	ld	r24, Z
     5ce:	82 60       	ori	r24, 0x02	; 2
     5d0:	80 83       	st	Z, r24
     5d2:	89 ef       	ldi	r24, 0xF9	; 249
     5d4:	80 93 b3 00 	sts	0x00B3, r24	; 0x8000b3 <__TEXT_REGION_LENGTH__+0x7f80b3>
     5d8:	0e 94 db 02 	call	0x5b6	; 0x5b6 <reset_prescaler>
     5dc:	e1 eb       	ldi	r30, 0xB1	; 177
     5de:	f0 e0       	ldi	r31, 0x00	; 0
     5e0:	80 81       	ld	r24, Z
     5e2:	84 60       	ori	r24, 0x04	; 4
     5e4:	80 83       	st	Z, r24
     5e6:	20 e0       	ldi	r18, 0x00	; 0
     5e8:	30 e0       	ldi	r19, 0x00	; 0
     5ea:	07 c0       	rjmp	.+14     	; 0x5fa <delay_ms+0x38>
     5ec:	b9 9b       	sbis	0x17, 1	; 23
     5ee:	fe cf       	rjmp	.-4      	; 0x5ec <delay_ms+0x2a>
     5f0:	87 b3       	in	r24, 0x17	; 23
     5f2:	82 60       	ori	r24, 0x02	; 2
     5f4:	87 bb       	out	0x17, r24	; 23
     5f6:	2f 5f       	subi	r18, 0xFF	; 255
     5f8:	3f 4f       	sbci	r19, 0xFF	; 255
     5fa:	2c 17       	cp	r18, r28
     5fc:	3d 07       	cpc	r19, r29
     5fe:	b0 f3       	brcs	.-20     	; 0x5ec <delay_ms+0x2a>
     600:	df 91       	pop	r29
     602:	cf 91       	pop	r28
     604:	08 95       	ret

00000606 <delay_us>:
     606:	cf 93       	push	r28
     608:	df 93       	push	r29
     60a:	ec 01       	movw	r28, r24
     60c:	e0 eb       	ldi	r30, 0xB0	; 176
     60e:	f0 e0       	ldi	r31, 0x00	; 0
     610:	80 81       	ld	r24, Z
     612:	82 60       	ori	r24, 0x02	; 2
     614:	80 83       	st	Z, r24
     616:	8f e0       	ldi	r24, 0x0F	; 15
     618:	80 93 b3 00 	sts	0x00B3, r24	; 0x8000b3 <__TEXT_REGION_LENGTH__+0x7f80b3>
     61c:	0e 94 db 02 	call	0x5b6	; 0x5b6 <reset_prescaler>
     620:	e1 eb       	ldi	r30, 0xB1	; 177
     622:	f0 e0       	ldi	r31, 0x00	; 0
     624:	80 81       	ld	r24, Z
     626:	81 60       	ori	r24, 0x01	; 1
     628:	80 83       	st	Z, r24
     62a:	20 e0       	ldi	r18, 0x00	; 0
     62c:	30 e0       	ldi	r19, 0x00	; 0
     62e:	07 c0       	rjmp	.+14     	; 0x63e <delay_us+0x38>
     630:	b9 9b       	sbis	0x17, 1	; 23
     632:	fe cf       	rjmp	.-4      	; 0x630 <delay_us+0x2a>
     634:	87 b3       	in	r24, 0x17	; 23
     636:	82 60       	ori	r24, 0x02	; 2
     638:	87 bb       	out	0x17, r24	; 23
     63a:	2f 5f       	subi	r18, 0xFF	; 255
     63c:	3f 4f       	sbci	r19, 0xFF	; 255
     63e:	2c 17       	cp	r18, r28
     640:	3d 07       	cpc	r19, r29
     642:	b0 f3       	brcs	.-20     	; 0x630 <delay_us+0x2a>
     644:	df 91       	pop	r29
     646:	cf 91       	pop	r28
     648:	08 95       	ret

0000064a <ultrasound_sensor>:
     64a:	cf 92       	push	r12
     64c:	df 92       	push	r13
     64e:	ef 92       	push	r14
     650:	ff 92       	push	r15
     652:	0f 93       	push	r16
     654:	1f 93       	push	r17
     656:	cf 93       	push	r28
     658:	df 93       	push	r29
     65a:	18 2f       	mov	r17, r24
     65c:	02 e0       	ldi	r16, 0x02	; 2
     65e:	08 0f       	add	r16, r24
     660:	0e 94 9d 02 	call	0x53a	; 0x53a <start_timer>
     664:	85 b1       	in	r24, 0x05	; 5
     666:	c1 e0       	ldi	r28, 0x01	; 1
     668:	d0 e0       	ldi	r29, 0x00	; 0
     66a:	02 c0       	rjmp	.+4      	; 0x670 <ultrasound_sensor+0x26>
     66c:	cc 0f       	add	r28, r28
     66e:	dd 1f       	adc	r29, r29
     670:	0a 95       	dec	r16
     672:	e2 f7       	brpl	.-8      	; 0x66c <ultrasound_sensor+0x22>
     674:	dc 2f       	mov	r29, r28
     676:	d0 95       	com	r29
     678:	8d 23       	and	r24, r29
     67a:	85 b9       	out	0x05, r24	; 5
     67c:	82 e0       	ldi	r24, 0x02	; 2
     67e:	90 e0       	ldi	r25, 0x00	; 0
     680:	0e 94 03 03 	call	0x606	; 0x606 <delay_us>
     684:	85 b1       	in	r24, 0x05	; 5
     686:	c8 2b       	or	r28, r24
     688:	c5 b9       	out	0x05, r28	; 5
     68a:	8a e0       	ldi	r24, 0x0A	; 10
     68c:	90 e0       	ldi	r25, 0x00	; 0
     68e:	0e 94 03 03 	call	0x606	; 0x606 <delay_us>
     692:	85 b1       	in	r24, 0x05	; 5
     694:	d8 23       	and	r29, r24
     696:	d5 b9       	out	0x05, r29	; 5
     698:	c0 e0       	ldi	r28, 0x00	; 0
     69a:	d0 e0       	ldi	r29, 0x00	; 0
     69c:	04 c0       	rjmp	.+8      	; 0x6a6 <ultrasound_sensor+0x5c>
     69e:	c0 91 ae 01 	lds	r28, 0x01AE	; 0x8001ae <ten_us_counter>
     6a2:	d0 91 af 01 	lds	r29, 0x01AF	; 0x8001af <ten_us_counter+0x1>
     6a6:	86 b1       	in	r24, 0x06	; 6
     6a8:	21 2f       	mov	r18, r17
     6aa:	90 e0       	ldi	r25, 0x00	; 0
     6ac:	01 2e       	mov	r0, r17
     6ae:	02 c0       	rjmp	.+4      	; 0x6b4 <ultrasound_sensor+0x6a>
     6b0:	95 95       	asr	r25
     6b2:	87 95       	ror	r24
     6b4:	0a 94       	dec	r0
     6b6:	e2 f7       	brpl	.-8      	; 0x6b0 <ultrasound_sensor+0x66>
     6b8:	80 ff       	sbrs	r24, 0
     6ba:	f1 cf       	rjmp	.-30     	; 0x69e <ultrasound_sensor+0x54>
     6bc:	00 e0       	ldi	r16, 0x00	; 0
     6be:	10 e0       	ldi	r17, 0x00	; 0
     6c0:	04 c0       	rjmp	.+8      	; 0x6ca <ultrasound_sensor+0x80>
     6c2:	00 91 ae 01 	lds	r16, 0x01AE	; 0x8001ae <ten_us_counter>
     6c6:	10 91 af 01 	lds	r17, 0x01AF	; 0x8001af <ten_us_counter+0x1>
     6ca:	86 b1       	in	r24, 0x06	; 6
     6cc:	90 e0       	ldi	r25, 0x00	; 0
     6ce:	02 2e       	mov	r0, r18
     6d0:	02 c0       	rjmp	.+4      	; 0x6d6 <ultrasound_sensor+0x8c>
     6d2:	95 95       	asr	r25
     6d4:	87 95       	ror	r24
     6d6:	0a 94       	dec	r0
     6d8:	e2 f7       	brpl	.-8      	; 0x6d2 <ultrasound_sensor+0x88>
     6da:	80 fd       	sbrc	r24, 0
     6dc:	f2 cf       	rjmp	.-28     	; 0x6c2 <ultrasound_sensor+0x78>
     6de:	0e 94 d8 02 	call	0x5b0	; 0x5b0 <stop_timer>
     6e2:	b8 01       	movw	r22, r16
     6e4:	6c 1b       	sub	r22, r28
     6e6:	7d 0b       	sbc	r23, r29
     6e8:	10 92 af 01 	sts	0x01AF, r1	; 0x8001af <ten_us_counter+0x1>
     6ec:	10 92 ae 01 	sts	0x01AE, r1	; 0x8001ae <ten_us_counter>
     6f0:	80 e0       	ldi	r24, 0x00	; 0
     6f2:	90 e0       	ldi	r25, 0x00	; 0
     6f4:	0e 94 05 05 	call	0xa0a	; 0xa0a <__floatunsisf>
     6f8:	2b e7       	ldi	r18, 0x7B	; 123
     6fa:	34 e1       	ldi	r19, 0x14	; 20
     6fc:	4e ea       	ldi	r20, 0xAE	; 174
     6fe:	5e e3       	ldi	r21, 0x3E	; 62
     700:	0e 94 93 05 	call	0xb26	; 0xb26 <__mulsf3>
     704:	20 e0       	ldi	r18, 0x00	; 0
     706:	30 e0       	ldi	r19, 0x00	; 0
     708:	40 e0       	ldi	r20, 0x00	; 0
     70a:	5f e3       	ldi	r21, 0x3F	; 63
     70c:	0e 94 93 05 	call	0xb26	; 0xb26 <__mulsf3>
     710:	0e 94 d6 04 	call	0x9ac	; 0x9ac <__fixunssfsi>
     714:	6b 01       	movw	r12, r22
     716:	7c 01       	movw	r14, r24
     718:	8c e3       	ldi	r24, 0x3C	; 60
     71a:	90 e0       	ldi	r25, 0x00	; 0
     71c:	0e 94 e1 02 	call	0x5c2	; 0x5c2 <delay_ms>
     720:	c6 01       	movw	r24, r12
     722:	df 91       	pop	r29
     724:	cf 91       	pop	r28
     726:	1f 91       	pop	r17
     728:	0f 91       	pop	r16
     72a:	ff 90       	pop	r15
     72c:	ef 90       	pop	r14
     72e:	df 90       	pop	r13
     730:	cf 90       	pop	r12
     732:	08 95       	ret

00000734 <set_pins>:
     734:	87 b1       	in	r24, 0x07	; 7
     736:	8e 7f       	andi	r24, 0xFE	; 254
     738:	87 b9       	out	0x07, r24	; 7
     73a:	87 b1       	in	r24, 0x07	; 7
     73c:	8d 7f       	andi	r24, 0xFD	; 253
     73e:	87 b9       	out	0x07, r24	; 7
     740:	87 b1       	in	r24, 0x07	; 7
     742:	8b 7f       	andi	r24, 0xFB	; 251
     744:	87 b9       	out	0x07, r24	; 7
     746:	84 b1       	in	r24, 0x04	; 4
     748:	84 60       	ori	r24, 0x04	; 4
     74a:	84 b9       	out	0x04, r24	; 4
     74c:	84 b1       	in	r24, 0x04	; 4
     74e:	88 60       	ori	r24, 0x08	; 8
     750:	84 b9       	out	0x04, r24	; 4
     752:	84 b1       	in	r24, 0x04	; 4
     754:	80 61       	ori	r24, 0x10	; 16
     756:	84 b9       	out	0x04, r24	; 4
     758:	8a b1       	in	r24, 0x0a	; 10
     75a:	8b 7f       	andi	r24, 0xFB	; 251
     75c:	8a b9       	out	0x0a, r24	; 10
     75e:	8a b1       	in	r24, 0x0a	; 10
     760:	87 7f       	andi	r24, 0xF7	; 247
     762:	8a b9       	out	0x0a, r24	; 10
     764:	8a b1       	in	r24, 0x0a	; 10
     766:	80 61       	ori	r24, 0x10	; 16
     768:	8a b9       	out	0x0a, r24	; 10
     76a:	8a b1       	in	r24, 0x0a	; 10
     76c:	80 68       	ori	r24, 0x80	; 128
     76e:	8a b9       	out	0x0a, r24	; 10
     770:	84 b1       	in	r24, 0x04	; 4
     772:	81 60       	ori	r24, 0x01	; 1
     774:	84 b9       	out	0x04, r24	; 4
     776:	84 b1       	in	r24, 0x04	; 4
     778:	82 60       	ori	r24, 0x02	; 2
     77a:	84 b9       	out	0x04, r24	; 4
     77c:	8a b1       	in	r24, 0x0a	; 10
     77e:	80 62       	ori	r24, 0x20	; 32
     780:	8a b9       	out	0x0a, r24	; 10
     782:	8a b1       	in	r24, 0x0a	; 10
     784:	80 64       	ori	r24, 0x40	; 64
     786:	8a b9       	out	0x0a, r24	; 10
     788:	08 95       	ret

0000078a <uart_putchar>:
     78a:	cf 93       	push	r28
     78c:	c8 2f       	mov	r28, r24
     78e:	8a 30       	cpi	r24, 0x0A	; 10
     790:	19 f4       	brne	.+6      	; 0x798 <uart_putchar+0xe>
     792:	8d e0       	ldi	r24, 0x0D	; 13
     794:	0e 94 c5 03 	call	0x78a	; 0x78a <uart_putchar>
     798:	80 91 c0 00 	lds	r24, 0x00C0	; 0x8000c0 <__TEXT_REGION_LENGTH__+0x7f80c0>
     79c:	85 ff       	sbrs	r24, 5
     79e:	fc cf       	rjmp	.-8      	; 0x798 <uart_putchar+0xe>
     7a0:	c0 93 c6 00 	sts	0x00C6, r28	; 0x8000c6 <__TEXT_REGION_LENGTH__+0x7f80c6>
     7a4:	cf 91       	pop	r28
     7a6:	08 95       	ret

000007a8 <uart_getchar>:
     7a8:	80 91 c0 00 	lds	r24, 0x00C0	; 0x8000c0 <__TEXT_REGION_LENGTH__+0x7f80c0>
     7ac:	88 23       	and	r24, r24
     7ae:	e4 f7       	brge	.-8      	; 0x7a8 <uart_getchar>
     7b0:	80 91 c6 00 	lds	r24, 0x00C6	; 0x8000c6 <__TEXT_REGION_LENGTH__+0x7f80c6>
     7b4:	08 95       	ret

000007b6 <uart_init>:
     7b6:	10 92 c5 00 	sts	0x00C5, r1	; 0x8000c5 <__TEXT_REGION_LENGTH__+0x7f80c5>
     7ba:	87 e6       	ldi	r24, 0x67	; 103
     7bc:	80 93 c4 00 	sts	0x00C4, r24	; 0x8000c4 <__TEXT_REGION_LENGTH__+0x7f80c4>
     7c0:	e0 ec       	ldi	r30, 0xC0	; 192
     7c2:	f0 e0       	ldi	r31, 0x00	; 0
     7c4:	80 81       	ld	r24, Z
     7c6:	8d 7f       	andi	r24, 0xFD	; 253
     7c8:	80 83       	st	Z, r24
     7ca:	86 e0       	ldi	r24, 0x06	; 6
     7cc:	80 93 c2 00 	sts	0x00C2, r24	; 0x8000c2 <__TEXT_REGION_LENGTH__+0x7f80c2>
     7d0:	88 e1       	ldi	r24, 0x18	; 24
     7d2:	80 93 c1 00 	sts	0x00C1, r24	; 0x8000c1 <__TEXT_REGION_LENGTH__+0x7f80c1>
     7d6:	08 95       	ret

000007d8 <io_redirect>:
     7d8:	e0 eb       	ldi	r30, 0xB0	; 176
     7da:	f1 e0       	ldi	r31, 0x01	; 1
     7dc:	8e e0       	ldi	r24, 0x0E	; 14
     7de:	91 e0       	ldi	r25, 0x01	; 1
     7e0:	93 83       	std	Z+3, r25	; 0x03
     7e2:	82 83       	std	Z+2, r24	; 0x02
     7e4:	80 e0       	ldi	r24, 0x00	; 0
     7e6:	91 e0       	ldi	r25, 0x01	; 1
     7e8:	91 83       	std	Z+1, r25	; 0x01
     7ea:	80 83       	st	Z, r24
     7ec:	08 95       	ret

000007ee <__subsf3>:
     7ee:	50 58       	subi	r21, 0x80	; 128

000007f0 <__addsf3>:
     7f0:	bb 27       	eor	r27, r27
     7f2:	aa 27       	eor	r26, r26
     7f4:	0e 94 0f 04 	call	0x81e	; 0x81e <__addsf3x>
     7f8:	0c 94 59 05 	jmp	0xab2	; 0xab2 <__fp_round>
     7fc:	0e 94 4b 05 	call	0xa96	; 0xa96 <__fp_pscA>
     800:	38 f0       	brcs	.+14     	; 0x810 <__DATA_REGION_LENGTH__+0x10>
     802:	0e 94 52 05 	call	0xaa4	; 0xaa4 <__fp_pscB>
     806:	20 f0       	brcs	.+8      	; 0x810 <__DATA_REGION_LENGTH__+0x10>
     808:	39 f4       	brne	.+14     	; 0x818 <__DATA_REGION_LENGTH__+0x18>
     80a:	9f 3f       	cpi	r25, 0xFF	; 255
     80c:	19 f4       	brne	.+6      	; 0x814 <__DATA_REGION_LENGTH__+0x14>
     80e:	26 f4       	brtc	.+8      	; 0x818 <__DATA_REGION_LENGTH__+0x18>
     810:	0c 94 48 05 	jmp	0xa90	; 0xa90 <__fp_nan>
     814:	0e f4       	brtc	.+2      	; 0x818 <__DATA_REGION_LENGTH__+0x18>
     816:	e0 95       	com	r30
     818:	e7 fb       	bst	r30, 7
     81a:	0c 94 42 05 	jmp	0xa84	; 0xa84 <__fp_inf>

0000081e <__addsf3x>:
     81e:	e9 2f       	mov	r30, r25
     820:	0e 94 6a 05 	call	0xad4	; 0xad4 <__fp_split3>
     824:	58 f3       	brcs	.-42     	; 0x7fc <__addsf3+0xc>
     826:	ba 17       	cp	r27, r26
     828:	62 07       	cpc	r22, r18
     82a:	73 07       	cpc	r23, r19
     82c:	84 07       	cpc	r24, r20
     82e:	95 07       	cpc	r25, r21
     830:	20 f0       	brcs	.+8      	; 0x83a <__addsf3x+0x1c>
     832:	79 f4       	brne	.+30     	; 0x852 <__addsf3x+0x34>
     834:	a6 f5       	brtc	.+104    	; 0x89e <__addsf3x+0x80>
     836:	0c 94 8c 05 	jmp	0xb18	; 0xb18 <__fp_zero>
     83a:	0e f4       	brtc	.+2      	; 0x83e <__addsf3x+0x20>
     83c:	e0 95       	com	r30
     83e:	0b 2e       	mov	r0, r27
     840:	ba 2f       	mov	r27, r26
     842:	a0 2d       	mov	r26, r0
     844:	0b 01       	movw	r0, r22
     846:	b9 01       	movw	r22, r18
     848:	90 01       	movw	r18, r0
     84a:	0c 01       	movw	r0, r24
     84c:	ca 01       	movw	r24, r20
     84e:	a0 01       	movw	r20, r0
     850:	11 24       	eor	r1, r1
     852:	ff 27       	eor	r31, r31
     854:	59 1b       	sub	r21, r25
     856:	99 f0       	breq	.+38     	; 0x87e <__addsf3x+0x60>
     858:	59 3f       	cpi	r21, 0xF9	; 249
     85a:	50 f4       	brcc	.+20     	; 0x870 <__addsf3x+0x52>
     85c:	50 3e       	cpi	r21, 0xE0	; 224
     85e:	68 f1       	brcs	.+90     	; 0x8ba <__addsf3x+0x9c>
     860:	1a 16       	cp	r1, r26
     862:	f0 40       	sbci	r31, 0x00	; 0
     864:	a2 2f       	mov	r26, r18
     866:	23 2f       	mov	r18, r19
     868:	34 2f       	mov	r19, r20
     86a:	44 27       	eor	r20, r20
     86c:	58 5f       	subi	r21, 0xF8	; 248
     86e:	f3 cf       	rjmp	.-26     	; 0x856 <__addsf3x+0x38>
     870:	46 95       	lsr	r20
     872:	37 95       	ror	r19
     874:	27 95       	ror	r18
     876:	a7 95       	ror	r26
     878:	f0 40       	sbci	r31, 0x00	; 0
     87a:	53 95       	inc	r21
     87c:	c9 f7       	brne	.-14     	; 0x870 <__addsf3x+0x52>
     87e:	7e f4       	brtc	.+30     	; 0x89e <__addsf3x+0x80>
     880:	1f 16       	cp	r1, r31
     882:	ba 0b       	sbc	r27, r26
     884:	62 0b       	sbc	r22, r18
     886:	73 0b       	sbc	r23, r19
     888:	84 0b       	sbc	r24, r20
     88a:	ba f0       	brmi	.+46     	; 0x8ba <__addsf3x+0x9c>
     88c:	91 50       	subi	r25, 0x01	; 1
     88e:	a1 f0       	breq	.+40     	; 0x8b8 <__addsf3x+0x9a>
     890:	ff 0f       	add	r31, r31
     892:	bb 1f       	adc	r27, r27
     894:	66 1f       	adc	r22, r22
     896:	77 1f       	adc	r23, r23
     898:	88 1f       	adc	r24, r24
     89a:	c2 f7       	brpl	.-16     	; 0x88c <__addsf3x+0x6e>
     89c:	0e c0       	rjmp	.+28     	; 0x8ba <__addsf3x+0x9c>
     89e:	ba 0f       	add	r27, r26
     8a0:	62 1f       	adc	r22, r18
     8a2:	73 1f       	adc	r23, r19
     8a4:	84 1f       	adc	r24, r20
     8a6:	48 f4       	brcc	.+18     	; 0x8ba <__addsf3x+0x9c>
     8a8:	87 95       	ror	r24
     8aa:	77 95       	ror	r23
     8ac:	67 95       	ror	r22
     8ae:	b7 95       	ror	r27
     8b0:	f7 95       	ror	r31
     8b2:	9e 3f       	cpi	r25, 0xFE	; 254
     8b4:	08 f0       	brcs	.+2      	; 0x8b8 <__addsf3x+0x9a>
     8b6:	b0 cf       	rjmp	.-160    	; 0x818 <__DATA_REGION_LENGTH__+0x18>
     8b8:	93 95       	inc	r25
     8ba:	88 0f       	add	r24, r24
     8bc:	08 f0       	brcs	.+2      	; 0x8c0 <__addsf3x+0xa2>
     8be:	99 27       	eor	r25, r25
     8c0:	ee 0f       	add	r30, r30
     8c2:	97 95       	ror	r25
     8c4:	87 95       	ror	r24
     8c6:	08 95       	ret

000008c8 <__divsf3>:
     8c8:	0e 94 78 04 	call	0x8f0	; 0x8f0 <__divsf3x>
     8cc:	0c 94 59 05 	jmp	0xab2	; 0xab2 <__fp_round>
     8d0:	0e 94 52 05 	call	0xaa4	; 0xaa4 <__fp_pscB>
     8d4:	58 f0       	brcs	.+22     	; 0x8ec <__divsf3+0x24>
     8d6:	0e 94 4b 05 	call	0xa96	; 0xa96 <__fp_pscA>
     8da:	40 f0       	brcs	.+16     	; 0x8ec <__divsf3+0x24>
     8dc:	29 f4       	brne	.+10     	; 0x8e8 <__divsf3+0x20>
     8de:	5f 3f       	cpi	r21, 0xFF	; 255
     8e0:	29 f0       	breq	.+10     	; 0x8ec <__divsf3+0x24>
     8e2:	0c 94 42 05 	jmp	0xa84	; 0xa84 <__fp_inf>
     8e6:	51 11       	cpse	r21, r1
     8e8:	0c 94 8d 05 	jmp	0xb1a	; 0xb1a <__fp_szero>
     8ec:	0c 94 48 05 	jmp	0xa90	; 0xa90 <__fp_nan>

000008f0 <__divsf3x>:
     8f0:	0e 94 6a 05 	call	0xad4	; 0xad4 <__fp_split3>
     8f4:	68 f3       	brcs	.-38     	; 0x8d0 <__divsf3+0x8>

000008f6 <__divsf3_pse>:
     8f6:	99 23       	and	r25, r25
     8f8:	b1 f3       	breq	.-20     	; 0x8e6 <__divsf3+0x1e>
     8fa:	55 23       	and	r21, r21
     8fc:	91 f3       	breq	.-28     	; 0x8e2 <__divsf3+0x1a>
     8fe:	95 1b       	sub	r25, r21
     900:	55 0b       	sbc	r21, r21
     902:	bb 27       	eor	r27, r27
     904:	aa 27       	eor	r26, r26
     906:	62 17       	cp	r22, r18
     908:	73 07       	cpc	r23, r19
     90a:	84 07       	cpc	r24, r20
     90c:	38 f0       	brcs	.+14     	; 0x91c <__stack+0x1d>
     90e:	9f 5f       	subi	r25, 0xFF	; 255
     910:	5f 4f       	sbci	r21, 0xFF	; 255
     912:	22 0f       	add	r18, r18
     914:	33 1f       	adc	r19, r19
     916:	44 1f       	adc	r20, r20
     918:	aa 1f       	adc	r26, r26
     91a:	a9 f3       	breq	.-22     	; 0x906 <__stack+0x7>
     91c:	35 d0       	rcall	.+106    	; 0x988 <__stack+0x89>
     91e:	0e 2e       	mov	r0, r30
     920:	3a f0       	brmi	.+14     	; 0x930 <__stack+0x31>
     922:	e0 e8       	ldi	r30, 0x80	; 128
     924:	32 d0       	rcall	.+100    	; 0x98a <__stack+0x8b>
     926:	91 50       	subi	r25, 0x01	; 1
     928:	50 40       	sbci	r21, 0x00	; 0
     92a:	e6 95       	lsr	r30
     92c:	00 1c       	adc	r0, r0
     92e:	ca f7       	brpl	.-14     	; 0x922 <__stack+0x23>
     930:	2b d0       	rcall	.+86     	; 0x988 <__stack+0x89>
     932:	fe 2f       	mov	r31, r30
     934:	29 d0       	rcall	.+82     	; 0x988 <__stack+0x89>
     936:	66 0f       	add	r22, r22
     938:	77 1f       	adc	r23, r23
     93a:	88 1f       	adc	r24, r24
     93c:	bb 1f       	adc	r27, r27
     93e:	26 17       	cp	r18, r22
     940:	37 07       	cpc	r19, r23
     942:	48 07       	cpc	r20, r24
     944:	ab 07       	cpc	r26, r27
     946:	b0 e8       	ldi	r27, 0x80	; 128
     948:	09 f0       	breq	.+2      	; 0x94c <__stack+0x4d>
     94a:	bb 0b       	sbc	r27, r27
     94c:	80 2d       	mov	r24, r0
     94e:	bf 01       	movw	r22, r30
     950:	ff 27       	eor	r31, r31
     952:	93 58       	subi	r25, 0x83	; 131
     954:	5f 4f       	sbci	r21, 0xFF	; 255
     956:	3a f0       	brmi	.+14     	; 0x966 <__stack+0x67>
     958:	9e 3f       	cpi	r25, 0xFE	; 254
     95a:	51 05       	cpc	r21, r1
     95c:	78 f0       	brcs	.+30     	; 0x97c <__stack+0x7d>
     95e:	0c 94 42 05 	jmp	0xa84	; 0xa84 <__fp_inf>
     962:	0c 94 8d 05 	jmp	0xb1a	; 0xb1a <__fp_szero>
     966:	5f 3f       	cpi	r21, 0xFF	; 255
     968:	e4 f3       	brlt	.-8      	; 0x962 <__stack+0x63>
     96a:	98 3e       	cpi	r25, 0xE8	; 232
     96c:	d4 f3       	brlt	.-12     	; 0x962 <__stack+0x63>
     96e:	86 95       	lsr	r24
     970:	77 95       	ror	r23
     972:	67 95       	ror	r22
     974:	b7 95       	ror	r27
     976:	f7 95       	ror	r31
     978:	9f 5f       	subi	r25, 0xFF	; 255
     97a:	c9 f7       	brne	.-14     	; 0x96e <__stack+0x6f>
     97c:	88 0f       	add	r24, r24
     97e:	91 1d       	adc	r25, r1
     980:	96 95       	lsr	r25
     982:	87 95       	ror	r24
     984:	97 f9       	bld	r25, 7
     986:	08 95       	ret
     988:	e1 e0       	ldi	r30, 0x01	; 1
     98a:	66 0f       	add	r22, r22
     98c:	77 1f       	adc	r23, r23
     98e:	88 1f       	adc	r24, r24
     990:	bb 1f       	adc	r27, r27
     992:	62 17       	cp	r22, r18
     994:	73 07       	cpc	r23, r19
     996:	84 07       	cpc	r24, r20
     998:	ba 07       	cpc	r27, r26
     99a:	20 f0       	brcs	.+8      	; 0x9a4 <__stack+0xa5>
     99c:	62 1b       	sub	r22, r18
     99e:	73 0b       	sbc	r23, r19
     9a0:	84 0b       	sbc	r24, r20
     9a2:	ba 0b       	sbc	r27, r26
     9a4:	ee 1f       	adc	r30, r30
     9a6:	88 f7       	brcc	.-30     	; 0x98a <__stack+0x8b>
     9a8:	e0 95       	com	r30
     9aa:	08 95       	ret

000009ac <__fixunssfsi>:
     9ac:	0e 94 72 05 	call	0xae4	; 0xae4 <__fp_splitA>
     9b0:	88 f0       	brcs	.+34     	; 0x9d4 <__fixunssfsi+0x28>
     9b2:	9f 57       	subi	r25, 0x7F	; 127
     9b4:	98 f0       	brcs	.+38     	; 0x9dc <__fixunssfsi+0x30>
     9b6:	b9 2f       	mov	r27, r25
     9b8:	99 27       	eor	r25, r25
     9ba:	b7 51       	subi	r27, 0x17	; 23
     9bc:	b0 f0       	brcs	.+44     	; 0x9ea <__fixunssfsi+0x3e>
     9be:	e1 f0       	breq	.+56     	; 0x9f8 <__fixunssfsi+0x4c>
     9c0:	66 0f       	add	r22, r22
     9c2:	77 1f       	adc	r23, r23
     9c4:	88 1f       	adc	r24, r24
     9c6:	99 1f       	adc	r25, r25
     9c8:	1a f0       	brmi	.+6      	; 0x9d0 <__fixunssfsi+0x24>
     9ca:	ba 95       	dec	r27
     9cc:	c9 f7       	brne	.-14     	; 0x9c0 <__fixunssfsi+0x14>
     9ce:	14 c0       	rjmp	.+40     	; 0x9f8 <__fixunssfsi+0x4c>
     9d0:	b1 30       	cpi	r27, 0x01	; 1
     9d2:	91 f0       	breq	.+36     	; 0x9f8 <__fixunssfsi+0x4c>
     9d4:	0e 94 8c 05 	call	0xb18	; 0xb18 <__fp_zero>
     9d8:	b1 e0       	ldi	r27, 0x01	; 1
     9da:	08 95       	ret
     9dc:	0c 94 8c 05 	jmp	0xb18	; 0xb18 <__fp_zero>
     9e0:	67 2f       	mov	r22, r23
     9e2:	78 2f       	mov	r23, r24
     9e4:	88 27       	eor	r24, r24
     9e6:	b8 5f       	subi	r27, 0xF8	; 248
     9e8:	39 f0       	breq	.+14     	; 0x9f8 <__fixunssfsi+0x4c>
     9ea:	b9 3f       	cpi	r27, 0xF9	; 249
     9ec:	cc f3       	brlt	.-14     	; 0x9e0 <__fixunssfsi+0x34>
     9ee:	86 95       	lsr	r24
     9f0:	77 95       	ror	r23
     9f2:	67 95       	ror	r22
     9f4:	b3 95       	inc	r27
     9f6:	d9 f7       	brne	.-10     	; 0x9ee <__fixunssfsi+0x42>
     9f8:	3e f4       	brtc	.+14     	; 0xa08 <__fixunssfsi+0x5c>
     9fa:	90 95       	com	r25
     9fc:	80 95       	com	r24
     9fe:	70 95       	com	r23
     a00:	61 95       	neg	r22
     a02:	7f 4f       	sbci	r23, 0xFF	; 255
     a04:	8f 4f       	sbci	r24, 0xFF	; 255
     a06:	9f 4f       	sbci	r25, 0xFF	; 255
     a08:	08 95       	ret

00000a0a <__floatunsisf>:
     a0a:	e8 94       	clt
     a0c:	09 c0       	rjmp	.+18     	; 0xa20 <__floatsisf+0x12>

00000a0e <__floatsisf>:
     a0e:	97 fb       	bst	r25, 7
     a10:	3e f4       	brtc	.+14     	; 0xa20 <__floatsisf+0x12>
     a12:	90 95       	com	r25
     a14:	80 95       	com	r24
     a16:	70 95       	com	r23
     a18:	61 95       	neg	r22
     a1a:	7f 4f       	sbci	r23, 0xFF	; 255
     a1c:	8f 4f       	sbci	r24, 0xFF	; 255
     a1e:	9f 4f       	sbci	r25, 0xFF	; 255
     a20:	99 23       	and	r25, r25
     a22:	a9 f0       	breq	.+42     	; 0xa4e <__floatsisf+0x40>
     a24:	f9 2f       	mov	r31, r25
     a26:	96 e9       	ldi	r25, 0x96	; 150
     a28:	bb 27       	eor	r27, r27
     a2a:	93 95       	inc	r25
     a2c:	f6 95       	lsr	r31
     a2e:	87 95       	ror	r24
     a30:	77 95       	ror	r23
     a32:	67 95       	ror	r22
     a34:	b7 95       	ror	r27
     a36:	f1 11       	cpse	r31, r1
     a38:	f8 cf       	rjmp	.-16     	; 0xa2a <__floatsisf+0x1c>
     a3a:	fa f4       	brpl	.+62     	; 0xa7a <__floatsisf+0x6c>
     a3c:	bb 0f       	add	r27, r27
     a3e:	11 f4       	brne	.+4      	; 0xa44 <__floatsisf+0x36>
     a40:	60 ff       	sbrs	r22, 0
     a42:	1b c0       	rjmp	.+54     	; 0xa7a <__floatsisf+0x6c>
     a44:	6f 5f       	subi	r22, 0xFF	; 255
     a46:	7f 4f       	sbci	r23, 0xFF	; 255
     a48:	8f 4f       	sbci	r24, 0xFF	; 255
     a4a:	9f 4f       	sbci	r25, 0xFF	; 255
     a4c:	16 c0       	rjmp	.+44     	; 0xa7a <__floatsisf+0x6c>
     a4e:	88 23       	and	r24, r24
     a50:	11 f0       	breq	.+4      	; 0xa56 <__floatsisf+0x48>
     a52:	96 e9       	ldi	r25, 0x96	; 150
     a54:	11 c0       	rjmp	.+34     	; 0xa78 <__floatsisf+0x6a>
     a56:	77 23       	and	r23, r23
     a58:	21 f0       	breq	.+8      	; 0xa62 <__floatsisf+0x54>
     a5a:	9e e8       	ldi	r25, 0x8E	; 142
     a5c:	87 2f       	mov	r24, r23
     a5e:	76 2f       	mov	r23, r22
     a60:	05 c0       	rjmp	.+10     	; 0xa6c <__floatsisf+0x5e>
     a62:	66 23       	and	r22, r22
     a64:	71 f0       	breq	.+28     	; 0xa82 <__floatsisf+0x74>
     a66:	96 e8       	ldi	r25, 0x86	; 134
     a68:	86 2f       	mov	r24, r22
     a6a:	70 e0       	ldi	r23, 0x00	; 0
     a6c:	60 e0       	ldi	r22, 0x00	; 0
     a6e:	2a f0       	brmi	.+10     	; 0xa7a <__floatsisf+0x6c>
     a70:	9a 95       	dec	r25
     a72:	66 0f       	add	r22, r22
     a74:	77 1f       	adc	r23, r23
     a76:	88 1f       	adc	r24, r24
     a78:	da f7       	brpl	.-10     	; 0xa70 <__floatsisf+0x62>
     a7a:	88 0f       	add	r24, r24
     a7c:	96 95       	lsr	r25
     a7e:	87 95       	ror	r24
     a80:	97 f9       	bld	r25, 7
     a82:	08 95       	ret

00000a84 <__fp_inf>:
     a84:	97 f9       	bld	r25, 7
     a86:	9f 67       	ori	r25, 0x7F	; 127
     a88:	80 e8       	ldi	r24, 0x80	; 128
     a8a:	70 e0       	ldi	r23, 0x00	; 0
     a8c:	60 e0       	ldi	r22, 0x00	; 0
     a8e:	08 95       	ret

00000a90 <__fp_nan>:
     a90:	9f ef       	ldi	r25, 0xFF	; 255
     a92:	80 ec       	ldi	r24, 0xC0	; 192
     a94:	08 95       	ret

00000a96 <__fp_pscA>:
     a96:	00 24       	eor	r0, r0
     a98:	0a 94       	dec	r0
     a9a:	16 16       	cp	r1, r22
     a9c:	17 06       	cpc	r1, r23
     a9e:	18 06       	cpc	r1, r24
     aa0:	09 06       	cpc	r0, r25
     aa2:	08 95       	ret

00000aa4 <__fp_pscB>:
     aa4:	00 24       	eor	r0, r0
     aa6:	0a 94       	dec	r0
     aa8:	12 16       	cp	r1, r18
     aaa:	13 06       	cpc	r1, r19
     aac:	14 06       	cpc	r1, r20
     aae:	05 06       	cpc	r0, r21
     ab0:	08 95       	ret

00000ab2 <__fp_round>:
     ab2:	09 2e       	mov	r0, r25
     ab4:	03 94       	inc	r0
     ab6:	00 0c       	add	r0, r0
     ab8:	11 f4       	brne	.+4      	; 0xabe <__fp_round+0xc>
     aba:	88 23       	and	r24, r24
     abc:	52 f0       	brmi	.+20     	; 0xad2 <__fp_round+0x20>
     abe:	bb 0f       	add	r27, r27
     ac0:	40 f4       	brcc	.+16     	; 0xad2 <__fp_round+0x20>
     ac2:	bf 2b       	or	r27, r31
     ac4:	11 f4       	brne	.+4      	; 0xaca <__fp_round+0x18>
     ac6:	60 ff       	sbrs	r22, 0
     ac8:	04 c0       	rjmp	.+8      	; 0xad2 <__fp_round+0x20>
     aca:	6f 5f       	subi	r22, 0xFF	; 255
     acc:	7f 4f       	sbci	r23, 0xFF	; 255
     ace:	8f 4f       	sbci	r24, 0xFF	; 255
     ad0:	9f 4f       	sbci	r25, 0xFF	; 255
     ad2:	08 95       	ret

00000ad4 <__fp_split3>:
     ad4:	57 fd       	sbrc	r21, 7
     ad6:	90 58       	subi	r25, 0x80	; 128
     ad8:	44 0f       	add	r20, r20
     ada:	55 1f       	adc	r21, r21
     adc:	59 f0       	breq	.+22     	; 0xaf4 <__fp_splitA+0x10>
     ade:	5f 3f       	cpi	r21, 0xFF	; 255
     ae0:	71 f0       	breq	.+28     	; 0xafe <__fp_splitA+0x1a>
     ae2:	47 95       	ror	r20

00000ae4 <__fp_splitA>:
     ae4:	88 0f       	add	r24, r24
     ae6:	97 fb       	bst	r25, 7
     ae8:	99 1f       	adc	r25, r25
     aea:	61 f0       	breq	.+24     	; 0xb04 <__fp_splitA+0x20>
     aec:	9f 3f       	cpi	r25, 0xFF	; 255
     aee:	79 f0       	breq	.+30     	; 0xb0e <__fp_splitA+0x2a>
     af0:	87 95       	ror	r24
     af2:	08 95       	ret
     af4:	12 16       	cp	r1, r18
     af6:	13 06       	cpc	r1, r19
     af8:	14 06       	cpc	r1, r20
     afa:	55 1f       	adc	r21, r21
     afc:	f2 cf       	rjmp	.-28     	; 0xae2 <__fp_split3+0xe>
     afe:	46 95       	lsr	r20
     b00:	f1 df       	rcall	.-30     	; 0xae4 <__fp_splitA>
     b02:	08 c0       	rjmp	.+16     	; 0xb14 <__fp_splitA+0x30>
     b04:	16 16       	cp	r1, r22
     b06:	17 06       	cpc	r1, r23
     b08:	18 06       	cpc	r1, r24
     b0a:	99 1f       	adc	r25, r25
     b0c:	f1 cf       	rjmp	.-30     	; 0xaf0 <__fp_splitA+0xc>
     b0e:	86 95       	lsr	r24
     b10:	71 05       	cpc	r23, r1
     b12:	61 05       	cpc	r22, r1
     b14:	08 94       	sec
     b16:	08 95       	ret

00000b18 <__fp_zero>:
     b18:	e8 94       	clt

00000b1a <__fp_szero>:
     b1a:	bb 27       	eor	r27, r27
     b1c:	66 27       	eor	r22, r22
     b1e:	77 27       	eor	r23, r23
     b20:	cb 01       	movw	r24, r22
     b22:	97 f9       	bld	r25, 7
     b24:	08 95       	ret

00000b26 <__mulsf3>:
     b26:	0e 94 a6 05 	call	0xb4c	; 0xb4c <__mulsf3x>
     b2a:	0c 94 59 05 	jmp	0xab2	; 0xab2 <__fp_round>
     b2e:	0e 94 4b 05 	call	0xa96	; 0xa96 <__fp_pscA>
     b32:	38 f0       	brcs	.+14     	; 0xb42 <__mulsf3+0x1c>
     b34:	0e 94 52 05 	call	0xaa4	; 0xaa4 <__fp_pscB>
     b38:	20 f0       	brcs	.+8      	; 0xb42 <__mulsf3+0x1c>
     b3a:	95 23       	and	r25, r21
     b3c:	11 f0       	breq	.+4      	; 0xb42 <__mulsf3+0x1c>
     b3e:	0c 94 42 05 	jmp	0xa84	; 0xa84 <__fp_inf>
     b42:	0c 94 48 05 	jmp	0xa90	; 0xa90 <__fp_nan>
     b46:	11 24       	eor	r1, r1
     b48:	0c 94 8d 05 	jmp	0xb1a	; 0xb1a <__fp_szero>

00000b4c <__mulsf3x>:
     b4c:	0e 94 6a 05 	call	0xad4	; 0xad4 <__fp_split3>
     b50:	70 f3       	brcs	.-36     	; 0xb2e <__mulsf3+0x8>

00000b52 <__mulsf3_pse>:
     b52:	95 9f       	mul	r25, r21
     b54:	c1 f3       	breq	.-16     	; 0xb46 <__mulsf3+0x20>
     b56:	95 0f       	add	r25, r21
     b58:	50 e0       	ldi	r21, 0x00	; 0
     b5a:	55 1f       	adc	r21, r21
     b5c:	62 9f       	mul	r22, r18
     b5e:	f0 01       	movw	r30, r0
     b60:	72 9f       	mul	r23, r18
     b62:	bb 27       	eor	r27, r27
     b64:	f0 0d       	add	r31, r0
     b66:	b1 1d       	adc	r27, r1
     b68:	63 9f       	mul	r22, r19
     b6a:	aa 27       	eor	r26, r26
     b6c:	f0 0d       	add	r31, r0
     b6e:	b1 1d       	adc	r27, r1
     b70:	aa 1f       	adc	r26, r26
     b72:	64 9f       	mul	r22, r20
     b74:	66 27       	eor	r22, r22
     b76:	b0 0d       	add	r27, r0
     b78:	a1 1d       	adc	r26, r1
     b7a:	66 1f       	adc	r22, r22
     b7c:	82 9f       	mul	r24, r18
     b7e:	22 27       	eor	r18, r18
     b80:	b0 0d       	add	r27, r0
     b82:	a1 1d       	adc	r26, r1
     b84:	62 1f       	adc	r22, r18
     b86:	73 9f       	mul	r23, r19
     b88:	b0 0d       	add	r27, r0
     b8a:	a1 1d       	adc	r26, r1
     b8c:	62 1f       	adc	r22, r18
     b8e:	83 9f       	mul	r24, r19
     b90:	a0 0d       	add	r26, r0
     b92:	61 1d       	adc	r22, r1
     b94:	22 1f       	adc	r18, r18
     b96:	74 9f       	mul	r23, r20
     b98:	33 27       	eor	r19, r19
     b9a:	a0 0d       	add	r26, r0
     b9c:	61 1d       	adc	r22, r1
     b9e:	23 1f       	adc	r18, r19
     ba0:	84 9f       	mul	r24, r20
     ba2:	60 0d       	add	r22, r0
     ba4:	21 1d       	adc	r18, r1
     ba6:	82 2f       	mov	r24, r18
     ba8:	76 2f       	mov	r23, r22
     baa:	6a 2f       	mov	r22, r26
     bac:	11 24       	eor	r1, r1
     bae:	9f 57       	subi	r25, 0x7F	; 127
     bb0:	50 40       	sbci	r21, 0x00	; 0
     bb2:	9a f0       	brmi	.+38     	; 0xbda <__mulsf3_pse+0x88>
     bb4:	f1 f0       	breq	.+60     	; 0xbf2 <__mulsf3_pse+0xa0>
     bb6:	88 23       	and	r24, r24
     bb8:	4a f0       	brmi	.+18     	; 0xbcc <__mulsf3_pse+0x7a>
     bba:	ee 0f       	add	r30, r30
     bbc:	ff 1f       	adc	r31, r31
     bbe:	bb 1f       	adc	r27, r27
     bc0:	66 1f       	adc	r22, r22
     bc2:	77 1f       	adc	r23, r23
     bc4:	88 1f       	adc	r24, r24
     bc6:	91 50       	subi	r25, 0x01	; 1
     bc8:	50 40       	sbci	r21, 0x00	; 0
     bca:	a9 f7       	brne	.-22     	; 0xbb6 <__mulsf3_pse+0x64>
     bcc:	9e 3f       	cpi	r25, 0xFE	; 254
     bce:	51 05       	cpc	r21, r1
     bd0:	80 f0       	brcs	.+32     	; 0xbf2 <__mulsf3_pse+0xa0>
     bd2:	0c 94 42 05 	jmp	0xa84	; 0xa84 <__fp_inf>
     bd6:	0c 94 8d 05 	jmp	0xb1a	; 0xb1a <__fp_szero>
     bda:	5f 3f       	cpi	r21, 0xFF	; 255
     bdc:	e4 f3       	brlt	.-8      	; 0xbd6 <__mulsf3_pse+0x84>
     bde:	98 3e       	cpi	r25, 0xE8	; 232
     be0:	d4 f3       	brlt	.-12     	; 0xbd6 <__mulsf3_pse+0x84>
     be2:	86 95       	lsr	r24
     be4:	77 95       	ror	r23
     be6:	67 95       	ror	r22
     be8:	b7 95       	ror	r27
     bea:	f7 95       	ror	r31
     bec:	e7 95       	ror	r30
     bee:	9f 5f       	subi	r25, 0xFF	; 255
     bf0:	c1 f7       	brne	.-16     	; 0xbe2 <__mulsf3_pse+0x90>
     bf2:	fe 2b       	or	r31, r30
     bf4:	88 0f       	add	r24, r24
     bf6:	91 1d       	adc	r25, r1
     bf8:	96 95       	lsr	r25
     bfa:	87 95       	ror	r24
     bfc:	97 f9       	bld	r25, 7
     bfe:	08 95       	ret

00000c00 <printf>:
     c00:	a0 e0       	ldi	r26, 0x00	; 0
     c02:	b0 e0       	ldi	r27, 0x00	; 0
     c04:	e6 e0       	ldi	r30, 0x06	; 6
     c06:	f6 e0       	ldi	r31, 0x06	; 6
     c08:	0c 94 e7 08 	jmp	0x11ce	; 0x11ce <__prologue_saves__+0x20>
     c0c:	ae 01       	movw	r20, r28
     c0e:	4b 5f       	subi	r20, 0xFB	; 251
     c10:	5f 4f       	sbci	r21, 0xFF	; 255
     c12:	fa 01       	movw	r30, r20
     c14:	61 91       	ld	r22, Z+
     c16:	71 91       	ld	r23, Z+
     c18:	af 01       	movw	r20, r30
     c1a:	80 91 b2 01 	lds	r24, 0x01B2	; 0x8001b2 <__iob+0x2>
     c1e:	90 91 b3 01 	lds	r25, 0x01B3	; 0x8001b3 <__iob+0x3>
     c22:	0e 94 46 06 	call	0xc8c	; 0xc8c <vfprintf>
     c26:	e2 e0       	ldi	r30, 0x02	; 2
     c28:	0c 94 03 09 	jmp	0x1206	; 0x1206 <__epilogue_restores__+0x20>

00000c2c <puts>:
     c2c:	0f 93       	push	r16
     c2e:	1f 93       	push	r17
     c30:	cf 93       	push	r28
     c32:	df 93       	push	r29
     c34:	e0 91 b2 01 	lds	r30, 0x01B2	; 0x8001b2 <__iob+0x2>
     c38:	f0 91 b3 01 	lds	r31, 0x01B3	; 0x8001b3 <__iob+0x3>
     c3c:	23 81       	ldd	r18, Z+3	; 0x03
     c3e:	21 ff       	sbrs	r18, 1
     c40:	1b c0       	rjmp	.+54     	; 0xc78 <puts+0x4c>
     c42:	8c 01       	movw	r16, r24
     c44:	d0 e0       	ldi	r29, 0x00	; 0
     c46:	c0 e0       	ldi	r28, 0x00	; 0
     c48:	f8 01       	movw	r30, r16
     c4a:	81 91       	ld	r24, Z+
     c4c:	8f 01       	movw	r16, r30
     c4e:	60 91 b2 01 	lds	r22, 0x01B2	; 0x8001b2 <__iob+0x2>
     c52:	70 91 b3 01 	lds	r23, 0x01B3	; 0x8001b3 <__iob+0x3>
     c56:	db 01       	movw	r26, r22
     c58:	18 96       	adiw	r26, 0x08	; 8
     c5a:	ed 91       	ld	r30, X+
     c5c:	fc 91       	ld	r31, X
     c5e:	19 97       	sbiw	r26, 0x09	; 9
     c60:	88 23       	and	r24, r24
     c62:	31 f0       	breq	.+12     	; 0xc70 <puts+0x44>
     c64:	09 95       	icall
     c66:	89 2b       	or	r24, r25
     c68:	79 f3       	breq	.-34     	; 0xc48 <puts+0x1c>
     c6a:	df ef       	ldi	r29, 0xFF	; 255
     c6c:	cf ef       	ldi	r28, 0xFF	; 255
     c6e:	ec cf       	rjmp	.-40     	; 0xc48 <puts+0x1c>
     c70:	8a e0       	ldi	r24, 0x0A	; 10
     c72:	09 95       	icall
     c74:	89 2b       	or	r24, r25
     c76:	19 f0       	breq	.+6      	; 0xc7e <puts+0x52>
     c78:	8f ef       	ldi	r24, 0xFF	; 255
     c7a:	9f ef       	ldi	r25, 0xFF	; 255
     c7c:	02 c0       	rjmp	.+4      	; 0xc82 <puts+0x56>
     c7e:	8d 2f       	mov	r24, r29
     c80:	9c 2f       	mov	r25, r28
     c82:	df 91       	pop	r29
     c84:	cf 91       	pop	r28
     c86:	1f 91       	pop	r17
     c88:	0f 91       	pop	r16
     c8a:	08 95       	ret

00000c8c <vfprintf>:
     c8c:	ab e0       	ldi	r26, 0x0B	; 11
     c8e:	b0 e0       	ldi	r27, 0x00	; 0
     c90:	ec e4       	ldi	r30, 0x4C	; 76
     c92:	f6 e0       	ldi	r31, 0x06	; 6
     c94:	0c 94 d7 08 	jmp	0x11ae	; 0x11ae <__prologue_saves__>
     c98:	6c 01       	movw	r12, r24
     c9a:	7b 01       	movw	r14, r22
     c9c:	8a 01       	movw	r16, r20
     c9e:	fc 01       	movw	r30, r24
     ca0:	17 82       	std	Z+7, r1	; 0x07
     ca2:	16 82       	std	Z+6, r1	; 0x06
     ca4:	83 81       	ldd	r24, Z+3	; 0x03
     ca6:	81 ff       	sbrs	r24, 1
     ca8:	cc c1       	rjmp	.+920    	; 0x1042 <vfprintf+0x3b6>
     caa:	ce 01       	movw	r24, r28
     cac:	01 96       	adiw	r24, 0x01	; 1
     cae:	3c 01       	movw	r6, r24
     cb0:	f6 01       	movw	r30, r12
     cb2:	93 81       	ldd	r25, Z+3	; 0x03
     cb4:	f7 01       	movw	r30, r14
     cb6:	93 fd       	sbrc	r25, 3
     cb8:	85 91       	lpm	r24, Z+
     cba:	93 ff       	sbrs	r25, 3
     cbc:	81 91       	ld	r24, Z+
     cbe:	7f 01       	movw	r14, r30
     cc0:	88 23       	and	r24, r24
     cc2:	09 f4       	brne	.+2      	; 0xcc6 <vfprintf+0x3a>
     cc4:	ba c1       	rjmp	.+884    	; 0x103a <vfprintf+0x3ae>
     cc6:	85 32       	cpi	r24, 0x25	; 37
     cc8:	39 f4       	brne	.+14     	; 0xcd8 <vfprintf+0x4c>
     cca:	93 fd       	sbrc	r25, 3
     ccc:	85 91       	lpm	r24, Z+
     cce:	93 ff       	sbrs	r25, 3
     cd0:	81 91       	ld	r24, Z+
     cd2:	7f 01       	movw	r14, r30
     cd4:	85 32       	cpi	r24, 0x25	; 37
     cd6:	29 f4       	brne	.+10     	; 0xce2 <vfprintf+0x56>
     cd8:	b6 01       	movw	r22, r12
     cda:	90 e0       	ldi	r25, 0x00	; 0
     cdc:	0e 94 3d 08 	call	0x107a	; 0x107a <fputc>
     ce0:	e7 cf       	rjmp	.-50     	; 0xcb0 <vfprintf+0x24>
     ce2:	91 2c       	mov	r9, r1
     ce4:	21 2c       	mov	r2, r1
     ce6:	31 2c       	mov	r3, r1
     ce8:	ff e1       	ldi	r31, 0x1F	; 31
     cea:	f3 15       	cp	r31, r3
     cec:	d8 f0       	brcs	.+54     	; 0xd24 <vfprintf+0x98>
     cee:	8b 32       	cpi	r24, 0x2B	; 43
     cf0:	79 f0       	breq	.+30     	; 0xd10 <vfprintf+0x84>
     cf2:	38 f4       	brcc	.+14     	; 0xd02 <vfprintf+0x76>
     cf4:	80 32       	cpi	r24, 0x20	; 32
     cf6:	79 f0       	breq	.+30     	; 0xd16 <vfprintf+0x8a>
     cf8:	83 32       	cpi	r24, 0x23	; 35
     cfa:	a1 f4       	brne	.+40     	; 0xd24 <vfprintf+0x98>
     cfc:	23 2d       	mov	r18, r3
     cfe:	20 61       	ori	r18, 0x10	; 16
     d00:	1d c0       	rjmp	.+58     	; 0xd3c <vfprintf+0xb0>
     d02:	8d 32       	cpi	r24, 0x2D	; 45
     d04:	61 f0       	breq	.+24     	; 0xd1e <vfprintf+0x92>
     d06:	80 33       	cpi	r24, 0x30	; 48
     d08:	69 f4       	brne	.+26     	; 0xd24 <vfprintf+0x98>
     d0a:	23 2d       	mov	r18, r3
     d0c:	21 60       	ori	r18, 0x01	; 1
     d0e:	16 c0       	rjmp	.+44     	; 0xd3c <vfprintf+0xb0>
     d10:	83 2d       	mov	r24, r3
     d12:	82 60       	ori	r24, 0x02	; 2
     d14:	38 2e       	mov	r3, r24
     d16:	e3 2d       	mov	r30, r3
     d18:	e4 60       	ori	r30, 0x04	; 4
     d1a:	3e 2e       	mov	r3, r30
     d1c:	2a c0       	rjmp	.+84     	; 0xd72 <vfprintf+0xe6>
     d1e:	f3 2d       	mov	r31, r3
     d20:	f8 60       	ori	r31, 0x08	; 8
     d22:	1d c0       	rjmp	.+58     	; 0xd5e <vfprintf+0xd2>
     d24:	37 fc       	sbrc	r3, 7
     d26:	2d c0       	rjmp	.+90     	; 0xd82 <vfprintf+0xf6>
     d28:	20 ed       	ldi	r18, 0xD0	; 208
     d2a:	28 0f       	add	r18, r24
     d2c:	2a 30       	cpi	r18, 0x0A	; 10
     d2e:	40 f0       	brcs	.+16     	; 0xd40 <vfprintf+0xb4>
     d30:	8e 32       	cpi	r24, 0x2E	; 46
     d32:	b9 f4       	brne	.+46     	; 0xd62 <vfprintf+0xd6>
     d34:	36 fc       	sbrc	r3, 6
     d36:	81 c1       	rjmp	.+770    	; 0x103a <vfprintf+0x3ae>
     d38:	23 2d       	mov	r18, r3
     d3a:	20 64       	ori	r18, 0x40	; 64
     d3c:	32 2e       	mov	r3, r18
     d3e:	19 c0       	rjmp	.+50     	; 0xd72 <vfprintf+0xe6>
     d40:	36 fe       	sbrs	r3, 6
     d42:	06 c0       	rjmp	.+12     	; 0xd50 <vfprintf+0xc4>
     d44:	8a e0       	ldi	r24, 0x0A	; 10
     d46:	98 9e       	mul	r9, r24
     d48:	20 0d       	add	r18, r0
     d4a:	11 24       	eor	r1, r1
     d4c:	92 2e       	mov	r9, r18
     d4e:	11 c0       	rjmp	.+34     	; 0xd72 <vfprintf+0xe6>
     d50:	ea e0       	ldi	r30, 0x0A	; 10
     d52:	2e 9e       	mul	r2, r30
     d54:	20 0d       	add	r18, r0
     d56:	11 24       	eor	r1, r1
     d58:	22 2e       	mov	r2, r18
     d5a:	f3 2d       	mov	r31, r3
     d5c:	f0 62       	ori	r31, 0x20	; 32
     d5e:	3f 2e       	mov	r3, r31
     d60:	08 c0       	rjmp	.+16     	; 0xd72 <vfprintf+0xe6>
     d62:	8c 36       	cpi	r24, 0x6C	; 108
     d64:	21 f4       	brne	.+8      	; 0xd6e <vfprintf+0xe2>
     d66:	83 2d       	mov	r24, r3
     d68:	80 68       	ori	r24, 0x80	; 128
     d6a:	38 2e       	mov	r3, r24
     d6c:	02 c0       	rjmp	.+4      	; 0xd72 <vfprintf+0xe6>
     d6e:	88 36       	cpi	r24, 0x68	; 104
     d70:	41 f4       	brne	.+16     	; 0xd82 <vfprintf+0xf6>
     d72:	f7 01       	movw	r30, r14
     d74:	93 fd       	sbrc	r25, 3
     d76:	85 91       	lpm	r24, Z+
     d78:	93 ff       	sbrs	r25, 3
     d7a:	81 91       	ld	r24, Z+
     d7c:	7f 01       	movw	r14, r30
     d7e:	81 11       	cpse	r24, r1
     d80:	b3 cf       	rjmp	.-154    	; 0xce8 <vfprintf+0x5c>
     d82:	98 2f       	mov	r25, r24
     d84:	9f 7d       	andi	r25, 0xDF	; 223
     d86:	95 54       	subi	r25, 0x45	; 69
     d88:	93 30       	cpi	r25, 0x03	; 3
     d8a:	28 f4       	brcc	.+10     	; 0xd96 <vfprintf+0x10a>
     d8c:	0c 5f       	subi	r16, 0xFC	; 252
     d8e:	1f 4f       	sbci	r17, 0xFF	; 255
     d90:	9f e3       	ldi	r25, 0x3F	; 63
     d92:	99 83       	std	Y+1, r25	; 0x01
     d94:	0d c0       	rjmp	.+26     	; 0xdb0 <vfprintf+0x124>
     d96:	83 36       	cpi	r24, 0x63	; 99
     d98:	31 f0       	breq	.+12     	; 0xda6 <vfprintf+0x11a>
     d9a:	83 37       	cpi	r24, 0x73	; 115
     d9c:	71 f0       	breq	.+28     	; 0xdba <vfprintf+0x12e>
     d9e:	83 35       	cpi	r24, 0x53	; 83
     da0:	09 f0       	breq	.+2      	; 0xda4 <vfprintf+0x118>
     da2:	59 c0       	rjmp	.+178    	; 0xe56 <vfprintf+0x1ca>
     da4:	21 c0       	rjmp	.+66     	; 0xde8 <vfprintf+0x15c>
     da6:	f8 01       	movw	r30, r16
     da8:	80 81       	ld	r24, Z
     daa:	89 83       	std	Y+1, r24	; 0x01
     dac:	0e 5f       	subi	r16, 0xFE	; 254
     dae:	1f 4f       	sbci	r17, 0xFF	; 255
     db0:	88 24       	eor	r8, r8
     db2:	83 94       	inc	r8
     db4:	91 2c       	mov	r9, r1
     db6:	53 01       	movw	r10, r6
     db8:	13 c0       	rjmp	.+38     	; 0xde0 <vfprintf+0x154>
     dba:	28 01       	movw	r4, r16
     dbc:	f2 e0       	ldi	r31, 0x02	; 2
     dbe:	4f 0e       	add	r4, r31
     dc0:	51 1c       	adc	r5, r1
     dc2:	f8 01       	movw	r30, r16
     dc4:	a0 80       	ld	r10, Z
     dc6:	b1 80       	ldd	r11, Z+1	; 0x01
     dc8:	36 fe       	sbrs	r3, 6
     dca:	03 c0       	rjmp	.+6      	; 0xdd2 <vfprintf+0x146>
     dcc:	69 2d       	mov	r22, r9
     dce:	70 e0       	ldi	r23, 0x00	; 0
     dd0:	02 c0       	rjmp	.+4      	; 0xdd6 <vfprintf+0x14a>
     dd2:	6f ef       	ldi	r22, 0xFF	; 255
     dd4:	7f ef       	ldi	r23, 0xFF	; 255
     dd6:	c5 01       	movw	r24, r10
     dd8:	0e 94 32 08 	call	0x1064	; 0x1064 <strnlen>
     ddc:	4c 01       	movw	r8, r24
     dde:	82 01       	movw	r16, r4
     de0:	f3 2d       	mov	r31, r3
     de2:	ff 77       	andi	r31, 0x7F	; 127
     de4:	3f 2e       	mov	r3, r31
     de6:	16 c0       	rjmp	.+44     	; 0xe14 <vfprintf+0x188>
     de8:	28 01       	movw	r4, r16
     dea:	22 e0       	ldi	r18, 0x02	; 2
     dec:	42 0e       	add	r4, r18
     dee:	51 1c       	adc	r5, r1
     df0:	f8 01       	movw	r30, r16
     df2:	a0 80       	ld	r10, Z
     df4:	b1 80       	ldd	r11, Z+1	; 0x01
     df6:	36 fe       	sbrs	r3, 6
     df8:	03 c0       	rjmp	.+6      	; 0xe00 <vfprintf+0x174>
     dfa:	69 2d       	mov	r22, r9
     dfc:	70 e0       	ldi	r23, 0x00	; 0
     dfe:	02 c0       	rjmp	.+4      	; 0xe04 <vfprintf+0x178>
     e00:	6f ef       	ldi	r22, 0xFF	; 255
     e02:	7f ef       	ldi	r23, 0xFF	; 255
     e04:	c5 01       	movw	r24, r10
     e06:	0e 94 27 08 	call	0x104e	; 0x104e <strnlen_P>
     e0a:	4c 01       	movw	r8, r24
     e0c:	f3 2d       	mov	r31, r3
     e0e:	f0 68       	ori	r31, 0x80	; 128
     e10:	3f 2e       	mov	r3, r31
     e12:	82 01       	movw	r16, r4
     e14:	33 fc       	sbrc	r3, 3
     e16:	1b c0       	rjmp	.+54     	; 0xe4e <vfprintf+0x1c2>
     e18:	82 2d       	mov	r24, r2
     e1a:	90 e0       	ldi	r25, 0x00	; 0
     e1c:	88 16       	cp	r8, r24
     e1e:	99 06       	cpc	r9, r25
     e20:	b0 f4       	brcc	.+44     	; 0xe4e <vfprintf+0x1c2>
     e22:	b6 01       	movw	r22, r12
     e24:	80 e2       	ldi	r24, 0x20	; 32
     e26:	90 e0       	ldi	r25, 0x00	; 0
     e28:	0e 94 3d 08 	call	0x107a	; 0x107a <fputc>
     e2c:	2a 94       	dec	r2
     e2e:	f4 cf       	rjmp	.-24     	; 0xe18 <vfprintf+0x18c>
     e30:	f5 01       	movw	r30, r10
     e32:	37 fc       	sbrc	r3, 7
     e34:	85 91       	lpm	r24, Z+
     e36:	37 fe       	sbrs	r3, 7
     e38:	81 91       	ld	r24, Z+
     e3a:	5f 01       	movw	r10, r30
     e3c:	b6 01       	movw	r22, r12
     e3e:	90 e0       	ldi	r25, 0x00	; 0
     e40:	0e 94 3d 08 	call	0x107a	; 0x107a <fputc>
     e44:	21 10       	cpse	r2, r1
     e46:	2a 94       	dec	r2
     e48:	21 e0       	ldi	r18, 0x01	; 1
     e4a:	82 1a       	sub	r8, r18
     e4c:	91 08       	sbc	r9, r1
     e4e:	81 14       	cp	r8, r1
     e50:	91 04       	cpc	r9, r1
     e52:	71 f7       	brne	.-36     	; 0xe30 <vfprintf+0x1a4>
     e54:	e8 c0       	rjmp	.+464    	; 0x1026 <vfprintf+0x39a>
     e56:	84 36       	cpi	r24, 0x64	; 100
     e58:	11 f0       	breq	.+4      	; 0xe5e <vfprintf+0x1d2>
     e5a:	89 36       	cpi	r24, 0x69	; 105
     e5c:	41 f5       	brne	.+80     	; 0xeae <vfprintf+0x222>
     e5e:	f8 01       	movw	r30, r16
     e60:	37 fe       	sbrs	r3, 7
     e62:	07 c0       	rjmp	.+14     	; 0xe72 <vfprintf+0x1e6>
     e64:	60 81       	ld	r22, Z
     e66:	71 81       	ldd	r23, Z+1	; 0x01
     e68:	82 81       	ldd	r24, Z+2	; 0x02
     e6a:	93 81       	ldd	r25, Z+3	; 0x03
     e6c:	0c 5f       	subi	r16, 0xFC	; 252
     e6e:	1f 4f       	sbci	r17, 0xFF	; 255
     e70:	08 c0       	rjmp	.+16     	; 0xe82 <vfprintf+0x1f6>
     e72:	60 81       	ld	r22, Z
     e74:	71 81       	ldd	r23, Z+1	; 0x01
     e76:	07 2e       	mov	r0, r23
     e78:	00 0c       	add	r0, r0
     e7a:	88 0b       	sbc	r24, r24
     e7c:	99 0b       	sbc	r25, r25
     e7e:	0e 5f       	subi	r16, 0xFE	; 254
     e80:	1f 4f       	sbci	r17, 0xFF	; 255
     e82:	f3 2d       	mov	r31, r3
     e84:	ff 76       	andi	r31, 0x6F	; 111
     e86:	3f 2e       	mov	r3, r31
     e88:	97 ff       	sbrs	r25, 7
     e8a:	09 c0       	rjmp	.+18     	; 0xe9e <vfprintf+0x212>
     e8c:	90 95       	com	r25
     e8e:	80 95       	com	r24
     e90:	70 95       	com	r23
     e92:	61 95       	neg	r22
     e94:	7f 4f       	sbci	r23, 0xFF	; 255
     e96:	8f 4f       	sbci	r24, 0xFF	; 255
     e98:	9f 4f       	sbci	r25, 0xFF	; 255
     e9a:	f0 68       	ori	r31, 0x80	; 128
     e9c:	3f 2e       	mov	r3, r31
     e9e:	2a e0       	ldi	r18, 0x0A	; 10
     ea0:	30 e0       	ldi	r19, 0x00	; 0
     ea2:	a3 01       	movw	r20, r6
     ea4:	0e 94 79 08 	call	0x10f2	; 0x10f2 <__ultoa_invert>
     ea8:	88 2e       	mov	r8, r24
     eaa:	86 18       	sub	r8, r6
     eac:	45 c0       	rjmp	.+138    	; 0xf38 <vfprintf+0x2ac>
     eae:	85 37       	cpi	r24, 0x75	; 117
     eb0:	31 f4       	brne	.+12     	; 0xebe <vfprintf+0x232>
     eb2:	23 2d       	mov	r18, r3
     eb4:	2f 7e       	andi	r18, 0xEF	; 239
     eb6:	b2 2e       	mov	r11, r18
     eb8:	2a e0       	ldi	r18, 0x0A	; 10
     eba:	30 e0       	ldi	r19, 0x00	; 0
     ebc:	25 c0       	rjmp	.+74     	; 0xf08 <vfprintf+0x27c>
     ebe:	93 2d       	mov	r25, r3
     ec0:	99 7f       	andi	r25, 0xF9	; 249
     ec2:	b9 2e       	mov	r11, r25
     ec4:	8f 36       	cpi	r24, 0x6F	; 111
     ec6:	c1 f0       	breq	.+48     	; 0xef8 <vfprintf+0x26c>
     ec8:	18 f4       	brcc	.+6      	; 0xed0 <vfprintf+0x244>
     eca:	88 35       	cpi	r24, 0x58	; 88
     ecc:	79 f0       	breq	.+30     	; 0xeec <vfprintf+0x260>
     ece:	b5 c0       	rjmp	.+362    	; 0x103a <vfprintf+0x3ae>
     ed0:	80 37       	cpi	r24, 0x70	; 112
     ed2:	19 f0       	breq	.+6      	; 0xeda <vfprintf+0x24e>
     ed4:	88 37       	cpi	r24, 0x78	; 120
     ed6:	21 f0       	breq	.+8      	; 0xee0 <vfprintf+0x254>
     ed8:	b0 c0       	rjmp	.+352    	; 0x103a <vfprintf+0x3ae>
     eda:	e9 2f       	mov	r30, r25
     edc:	e0 61       	ori	r30, 0x10	; 16
     ede:	be 2e       	mov	r11, r30
     ee0:	b4 fe       	sbrs	r11, 4
     ee2:	0d c0       	rjmp	.+26     	; 0xefe <vfprintf+0x272>
     ee4:	fb 2d       	mov	r31, r11
     ee6:	f4 60       	ori	r31, 0x04	; 4
     ee8:	bf 2e       	mov	r11, r31
     eea:	09 c0       	rjmp	.+18     	; 0xefe <vfprintf+0x272>
     eec:	34 fe       	sbrs	r3, 4
     eee:	0a c0       	rjmp	.+20     	; 0xf04 <vfprintf+0x278>
     ef0:	29 2f       	mov	r18, r25
     ef2:	26 60       	ori	r18, 0x06	; 6
     ef4:	b2 2e       	mov	r11, r18
     ef6:	06 c0       	rjmp	.+12     	; 0xf04 <vfprintf+0x278>
     ef8:	28 e0       	ldi	r18, 0x08	; 8
     efa:	30 e0       	ldi	r19, 0x00	; 0
     efc:	05 c0       	rjmp	.+10     	; 0xf08 <vfprintf+0x27c>
     efe:	20 e1       	ldi	r18, 0x10	; 16
     f00:	30 e0       	ldi	r19, 0x00	; 0
     f02:	02 c0       	rjmp	.+4      	; 0xf08 <vfprintf+0x27c>
     f04:	20 e1       	ldi	r18, 0x10	; 16
     f06:	32 e0       	ldi	r19, 0x02	; 2
     f08:	f8 01       	movw	r30, r16
     f0a:	b7 fe       	sbrs	r11, 7
     f0c:	07 c0       	rjmp	.+14     	; 0xf1c <vfprintf+0x290>
     f0e:	60 81       	ld	r22, Z
     f10:	71 81       	ldd	r23, Z+1	; 0x01
     f12:	82 81       	ldd	r24, Z+2	; 0x02
     f14:	93 81       	ldd	r25, Z+3	; 0x03
     f16:	0c 5f       	subi	r16, 0xFC	; 252
     f18:	1f 4f       	sbci	r17, 0xFF	; 255
     f1a:	06 c0       	rjmp	.+12     	; 0xf28 <vfprintf+0x29c>
     f1c:	60 81       	ld	r22, Z
     f1e:	71 81       	ldd	r23, Z+1	; 0x01
     f20:	80 e0       	ldi	r24, 0x00	; 0
     f22:	90 e0       	ldi	r25, 0x00	; 0
     f24:	0e 5f       	subi	r16, 0xFE	; 254
     f26:	1f 4f       	sbci	r17, 0xFF	; 255
     f28:	a3 01       	movw	r20, r6
     f2a:	0e 94 79 08 	call	0x10f2	; 0x10f2 <__ultoa_invert>
     f2e:	88 2e       	mov	r8, r24
     f30:	86 18       	sub	r8, r6
     f32:	fb 2d       	mov	r31, r11
     f34:	ff 77       	andi	r31, 0x7F	; 127
     f36:	3f 2e       	mov	r3, r31
     f38:	36 fe       	sbrs	r3, 6
     f3a:	0d c0       	rjmp	.+26     	; 0xf56 <vfprintf+0x2ca>
     f3c:	23 2d       	mov	r18, r3
     f3e:	2e 7f       	andi	r18, 0xFE	; 254
     f40:	a2 2e       	mov	r10, r18
     f42:	89 14       	cp	r8, r9
     f44:	58 f4       	brcc	.+22     	; 0xf5c <vfprintf+0x2d0>
     f46:	34 fe       	sbrs	r3, 4
     f48:	0b c0       	rjmp	.+22     	; 0xf60 <vfprintf+0x2d4>
     f4a:	32 fc       	sbrc	r3, 2
     f4c:	09 c0       	rjmp	.+18     	; 0xf60 <vfprintf+0x2d4>
     f4e:	83 2d       	mov	r24, r3
     f50:	8e 7e       	andi	r24, 0xEE	; 238
     f52:	a8 2e       	mov	r10, r24
     f54:	05 c0       	rjmp	.+10     	; 0xf60 <vfprintf+0x2d4>
     f56:	b8 2c       	mov	r11, r8
     f58:	a3 2c       	mov	r10, r3
     f5a:	03 c0       	rjmp	.+6      	; 0xf62 <vfprintf+0x2d6>
     f5c:	b8 2c       	mov	r11, r8
     f5e:	01 c0       	rjmp	.+2      	; 0xf62 <vfprintf+0x2d6>
     f60:	b9 2c       	mov	r11, r9
     f62:	a4 fe       	sbrs	r10, 4
     f64:	0f c0       	rjmp	.+30     	; 0xf84 <vfprintf+0x2f8>
     f66:	fe 01       	movw	r30, r28
     f68:	e8 0d       	add	r30, r8
     f6a:	f1 1d       	adc	r31, r1
     f6c:	80 81       	ld	r24, Z
     f6e:	80 33       	cpi	r24, 0x30	; 48
     f70:	21 f4       	brne	.+8      	; 0xf7a <vfprintf+0x2ee>
     f72:	9a 2d       	mov	r25, r10
     f74:	99 7e       	andi	r25, 0xE9	; 233
     f76:	a9 2e       	mov	r10, r25
     f78:	09 c0       	rjmp	.+18     	; 0xf8c <vfprintf+0x300>
     f7a:	a2 fe       	sbrs	r10, 2
     f7c:	06 c0       	rjmp	.+12     	; 0xf8a <vfprintf+0x2fe>
     f7e:	b3 94       	inc	r11
     f80:	b3 94       	inc	r11
     f82:	04 c0       	rjmp	.+8      	; 0xf8c <vfprintf+0x300>
     f84:	8a 2d       	mov	r24, r10
     f86:	86 78       	andi	r24, 0x86	; 134
     f88:	09 f0       	breq	.+2      	; 0xf8c <vfprintf+0x300>
     f8a:	b3 94       	inc	r11
     f8c:	a3 fc       	sbrc	r10, 3
     f8e:	11 c0       	rjmp	.+34     	; 0xfb2 <vfprintf+0x326>
     f90:	a0 fe       	sbrs	r10, 0
     f92:	06 c0       	rjmp	.+12     	; 0xfa0 <vfprintf+0x314>
     f94:	b2 14       	cp	r11, r2
     f96:	88 f4       	brcc	.+34     	; 0xfba <vfprintf+0x32e>
     f98:	28 0c       	add	r2, r8
     f9a:	92 2c       	mov	r9, r2
     f9c:	9b 18       	sub	r9, r11
     f9e:	0e c0       	rjmp	.+28     	; 0xfbc <vfprintf+0x330>
     fa0:	b2 14       	cp	r11, r2
     fa2:	60 f4       	brcc	.+24     	; 0xfbc <vfprintf+0x330>
     fa4:	b6 01       	movw	r22, r12
     fa6:	80 e2       	ldi	r24, 0x20	; 32
     fa8:	90 e0       	ldi	r25, 0x00	; 0
     faa:	0e 94 3d 08 	call	0x107a	; 0x107a <fputc>
     fae:	b3 94       	inc	r11
     fb0:	f7 cf       	rjmp	.-18     	; 0xfa0 <vfprintf+0x314>
     fb2:	b2 14       	cp	r11, r2
     fb4:	18 f4       	brcc	.+6      	; 0xfbc <vfprintf+0x330>
     fb6:	2b 18       	sub	r2, r11
     fb8:	02 c0       	rjmp	.+4      	; 0xfbe <vfprintf+0x332>
     fba:	98 2c       	mov	r9, r8
     fbc:	21 2c       	mov	r2, r1
     fbe:	a4 fe       	sbrs	r10, 4
     fc0:	10 c0       	rjmp	.+32     	; 0xfe2 <vfprintf+0x356>
     fc2:	b6 01       	movw	r22, r12
     fc4:	80 e3       	ldi	r24, 0x30	; 48
     fc6:	90 e0       	ldi	r25, 0x00	; 0
     fc8:	0e 94 3d 08 	call	0x107a	; 0x107a <fputc>
     fcc:	a2 fe       	sbrs	r10, 2
     fce:	17 c0       	rjmp	.+46     	; 0xffe <vfprintf+0x372>
     fd0:	a1 fc       	sbrc	r10, 1
     fd2:	03 c0       	rjmp	.+6      	; 0xfda <vfprintf+0x34e>
     fd4:	88 e7       	ldi	r24, 0x78	; 120
     fd6:	90 e0       	ldi	r25, 0x00	; 0
     fd8:	02 c0       	rjmp	.+4      	; 0xfde <vfprintf+0x352>
     fda:	88 e5       	ldi	r24, 0x58	; 88
     fdc:	90 e0       	ldi	r25, 0x00	; 0
     fde:	b6 01       	movw	r22, r12
     fe0:	0c c0       	rjmp	.+24     	; 0xffa <vfprintf+0x36e>
     fe2:	8a 2d       	mov	r24, r10
     fe4:	86 78       	andi	r24, 0x86	; 134
     fe6:	59 f0       	breq	.+22     	; 0xffe <vfprintf+0x372>
     fe8:	a1 fe       	sbrs	r10, 1
     fea:	02 c0       	rjmp	.+4      	; 0xff0 <vfprintf+0x364>
     fec:	8b e2       	ldi	r24, 0x2B	; 43
     fee:	01 c0       	rjmp	.+2      	; 0xff2 <vfprintf+0x366>
     ff0:	80 e2       	ldi	r24, 0x20	; 32
     ff2:	a7 fc       	sbrc	r10, 7
     ff4:	8d e2       	ldi	r24, 0x2D	; 45
     ff6:	b6 01       	movw	r22, r12
     ff8:	90 e0       	ldi	r25, 0x00	; 0
     ffa:	0e 94 3d 08 	call	0x107a	; 0x107a <fputc>
     ffe:	89 14       	cp	r8, r9
    1000:	38 f4       	brcc	.+14     	; 0x1010 <vfprintf+0x384>
    1002:	b6 01       	movw	r22, r12
    1004:	80 e3       	ldi	r24, 0x30	; 48
    1006:	90 e0       	ldi	r25, 0x00	; 0
    1008:	0e 94 3d 08 	call	0x107a	; 0x107a <fputc>
    100c:	9a 94       	dec	r9
    100e:	f7 cf       	rjmp	.-18     	; 0xffe <vfprintf+0x372>
    1010:	8a 94       	dec	r8
    1012:	f3 01       	movw	r30, r6
    1014:	e8 0d       	add	r30, r8
    1016:	f1 1d       	adc	r31, r1
    1018:	80 81       	ld	r24, Z
    101a:	b6 01       	movw	r22, r12
    101c:	90 e0       	ldi	r25, 0x00	; 0
    101e:	0e 94 3d 08 	call	0x107a	; 0x107a <fputc>
    1022:	81 10       	cpse	r8, r1
    1024:	f5 cf       	rjmp	.-22     	; 0x1010 <vfprintf+0x384>
    1026:	22 20       	and	r2, r2
    1028:	09 f4       	brne	.+2      	; 0x102c <vfprintf+0x3a0>
    102a:	42 ce       	rjmp	.-892    	; 0xcb0 <vfprintf+0x24>
    102c:	b6 01       	movw	r22, r12
    102e:	80 e2       	ldi	r24, 0x20	; 32
    1030:	90 e0       	ldi	r25, 0x00	; 0
    1032:	0e 94 3d 08 	call	0x107a	; 0x107a <fputc>
    1036:	2a 94       	dec	r2
    1038:	f6 cf       	rjmp	.-20     	; 0x1026 <vfprintf+0x39a>
    103a:	f6 01       	movw	r30, r12
    103c:	86 81       	ldd	r24, Z+6	; 0x06
    103e:	97 81       	ldd	r25, Z+7	; 0x07
    1040:	02 c0       	rjmp	.+4      	; 0x1046 <vfprintf+0x3ba>
    1042:	8f ef       	ldi	r24, 0xFF	; 255
    1044:	9f ef       	ldi	r25, 0xFF	; 255
    1046:	2b 96       	adiw	r28, 0x0b	; 11
    1048:	e2 e1       	ldi	r30, 0x12	; 18
    104a:	0c 94 f3 08 	jmp	0x11e6	; 0x11e6 <__epilogue_restores__>

0000104e <strnlen_P>:
    104e:	fc 01       	movw	r30, r24
    1050:	05 90       	lpm	r0, Z+
    1052:	61 50       	subi	r22, 0x01	; 1
    1054:	70 40       	sbci	r23, 0x00	; 0
    1056:	01 10       	cpse	r0, r1
    1058:	d8 f7       	brcc	.-10     	; 0x1050 <strnlen_P+0x2>
    105a:	80 95       	com	r24
    105c:	90 95       	com	r25
    105e:	8e 0f       	add	r24, r30
    1060:	9f 1f       	adc	r25, r31
    1062:	08 95       	ret

00001064 <strnlen>:
    1064:	fc 01       	movw	r30, r24
    1066:	61 50       	subi	r22, 0x01	; 1
    1068:	70 40       	sbci	r23, 0x00	; 0
    106a:	01 90       	ld	r0, Z+
    106c:	01 10       	cpse	r0, r1
    106e:	d8 f7       	brcc	.-10     	; 0x1066 <strnlen+0x2>
    1070:	80 95       	com	r24
    1072:	90 95       	com	r25
    1074:	8e 0f       	add	r24, r30
    1076:	9f 1f       	adc	r25, r31
    1078:	08 95       	ret

0000107a <fputc>:
    107a:	0f 93       	push	r16
    107c:	1f 93       	push	r17
    107e:	cf 93       	push	r28
    1080:	df 93       	push	r29
    1082:	fb 01       	movw	r30, r22
    1084:	23 81       	ldd	r18, Z+3	; 0x03
    1086:	21 fd       	sbrc	r18, 1
    1088:	03 c0       	rjmp	.+6      	; 0x1090 <fputc+0x16>
    108a:	8f ef       	ldi	r24, 0xFF	; 255
    108c:	9f ef       	ldi	r25, 0xFF	; 255
    108e:	2c c0       	rjmp	.+88     	; 0x10e8 <fputc+0x6e>
    1090:	22 ff       	sbrs	r18, 2
    1092:	16 c0       	rjmp	.+44     	; 0x10c0 <fputc+0x46>
    1094:	46 81       	ldd	r20, Z+6	; 0x06
    1096:	57 81       	ldd	r21, Z+7	; 0x07
    1098:	24 81       	ldd	r18, Z+4	; 0x04
    109a:	35 81       	ldd	r19, Z+5	; 0x05
    109c:	42 17       	cp	r20, r18
    109e:	53 07       	cpc	r21, r19
    10a0:	44 f4       	brge	.+16     	; 0x10b2 <fputc+0x38>
    10a2:	a0 81       	ld	r26, Z
    10a4:	b1 81       	ldd	r27, Z+1	; 0x01
    10a6:	9d 01       	movw	r18, r26
    10a8:	2f 5f       	subi	r18, 0xFF	; 255
    10aa:	3f 4f       	sbci	r19, 0xFF	; 255
    10ac:	31 83       	std	Z+1, r19	; 0x01
    10ae:	20 83       	st	Z, r18
    10b0:	8c 93       	st	X, r24
    10b2:	26 81       	ldd	r18, Z+6	; 0x06
    10b4:	37 81       	ldd	r19, Z+7	; 0x07
    10b6:	2f 5f       	subi	r18, 0xFF	; 255
    10b8:	3f 4f       	sbci	r19, 0xFF	; 255
    10ba:	37 83       	std	Z+7, r19	; 0x07
    10bc:	26 83       	std	Z+6, r18	; 0x06
    10be:	14 c0       	rjmp	.+40     	; 0x10e8 <fputc+0x6e>
    10c0:	8b 01       	movw	r16, r22
    10c2:	ec 01       	movw	r28, r24
    10c4:	fb 01       	movw	r30, r22
    10c6:	00 84       	ldd	r0, Z+8	; 0x08
    10c8:	f1 85       	ldd	r31, Z+9	; 0x09
    10ca:	e0 2d       	mov	r30, r0
    10cc:	09 95       	icall
    10ce:	89 2b       	or	r24, r25
    10d0:	e1 f6       	brne	.-72     	; 0x108a <fputc+0x10>
    10d2:	d8 01       	movw	r26, r16
    10d4:	16 96       	adiw	r26, 0x06	; 6
    10d6:	8d 91       	ld	r24, X+
    10d8:	9c 91       	ld	r25, X
    10da:	17 97       	sbiw	r26, 0x07	; 7
    10dc:	01 96       	adiw	r24, 0x01	; 1
    10de:	17 96       	adiw	r26, 0x07	; 7
    10e0:	9c 93       	st	X, r25
    10e2:	8e 93       	st	-X, r24
    10e4:	16 97       	sbiw	r26, 0x06	; 6
    10e6:	ce 01       	movw	r24, r28
    10e8:	df 91       	pop	r29
    10ea:	cf 91       	pop	r28
    10ec:	1f 91       	pop	r17
    10ee:	0f 91       	pop	r16
    10f0:	08 95       	ret

000010f2 <__ultoa_invert>:
    10f2:	fa 01       	movw	r30, r20
    10f4:	aa 27       	eor	r26, r26
    10f6:	28 30       	cpi	r18, 0x08	; 8
    10f8:	51 f1       	breq	.+84     	; 0x114e <__ultoa_invert+0x5c>
    10fa:	20 31       	cpi	r18, 0x10	; 16
    10fc:	81 f1       	breq	.+96     	; 0x115e <__ultoa_invert+0x6c>
    10fe:	e8 94       	clt
    1100:	6f 93       	push	r22
    1102:	6e 7f       	andi	r22, 0xFE	; 254
    1104:	6e 5f       	subi	r22, 0xFE	; 254
    1106:	7f 4f       	sbci	r23, 0xFF	; 255
    1108:	8f 4f       	sbci	r24, 0xFF	; 255
    110a:	9f 4f       	sbci	r25, 0xFF	; 255
    110c:	af 4f       	sbci	r26, 0xFF	; 255
    110e:	b1 e0       	ldi	r27, 0x01	; 1
    1110:	3e d0       	rcall	.+124    	; 0x118e <__ultoa_invert+0x9c>
    1112:	b4 e0       	ldi	r27, 0x04	; 4
    1114:	3c d0       	rcall	.+120    	; 0x118e <__ultoa_invert+0x9c>
    1116:	67 0f       	add	r22, r23
    1118:	78 1f       	adc	r23, r24
    111a:	89 1f       	adc	r24, r25
    111c:	9a 1f       	adc	r25, r26
    111e:	a1 1d       	adc	r26, r1
    1120:	68 0f       	add	r22, r24
    1122:	79 1f       	adc	r23, r25
    1124:	8a 1f       	adc	r24, r26
    1126:	91 1d       	adc	r25, r1
    1128:	a1 1d       	adc	r26, r1
    112a:	6a 0f       	add	r22, r26
    112c:	71 1d       	adc	r23, r1
    112e:	81 1d       	adc	r24, r1
    1130:	91 1d       	adc	r25, r1
    1132:	a1 1d       	adc	r26, r1
    1134:	20 d0       	rcall	.+64     	; 0x1176 <__ultoa_invert+0x84>
    1136:	09 f4       	brne	.+2      	; 0x113a <__ultoa_invert+0x48>
    1138:	68 94       	set
    113a:	3f 91       	pop	r19
    113c:	2a e0       	ldi	r18, 0x0A	; 10
    113e:	26 9f       	mul	r18, r22
    1140:	11 24       	eor	r1, r1
    1142:	30 19       	sub	r19, r0
    1144:	30 5d       	subi	r19, 0xD0	; 208
    1146:	31 93       	st	Z+, r19
    1148:	de f6       	brtc	.-74     	; 0x1100 <__ultoa_invert+0xe>
    114a:	cf 01       	movw	r24, r30
    114c:	08 95       	ret
    114e:	46 2f       	mov	r20, r22
    1150:	47 70       	andi	r20, 0x07	; 7
    1152:	40 5d       	subi	r20, 0xD0	; 208
    1154:	41 93       	st	Z+, r20
    1156:	b3 e0       	ldi	r27, 0x03	; 3
    1158:	0f d0       	rcall	.+30     	; 0x1178 <__ultoa_invert+0x86>
    115a:	c9 f7       	brne	.-14     	; 0x114e <__ultoa_invert+0x5c>
    115c:	f6 cf       	rjmp	.-20     	; 0x114a <__ultoa_invert+0x58>
    115e:	46 2f       	mov	r20, r22
    1160:	4f 70       	andi	r20, 0x0F	; 15
    1162:	40 5d       	subi	r20, 0xD0	; 208
    1164:	4a 33       	cpi	r20, 0x3A	; 58
    1166:	18 f0       	brcs	.+6      	; 0x116e <__ultoa_invert+0x7c>
    1168:	49 5d       	subi	r20, 0xD9	; 217
    116a:	31 fd       	sbrc	r19, 1
    116c:	40 52       	subi	r20, 0x20	; 32
    116e:	41 93       	st	Z+, r20
    1170:	02 d0       	rcall	.+4      	; 0x1176 <__ultoa_invert+0x84>
    1172:	a9 f7       	brne	.-22     	; 0x115e <__ultoa_invert+0x6c>
    1174:	ea cf       	rjmp	.-44     	; 0x114a <__ultoa_invert+0x58>
    1176:	b4 e0       	ldi	r27, 0x04	; 4
    1178:	a6 95       	lsr	r26
    117a:	97 95       	ror	r25
    117c:	87 95       	ror	r24
    117e:	77 95       	ror	r23
    1180:	67 95       	ror	r22
    1182:	ba 95       	dec	r27
    1184:	c9 f7       	brne	.-14     	; 0x1178 <__ultoa_invert+0x86>
    1186:	00 97       	sbiw	r24, 0x00	; 0
    1188:	61 05       	cpc	r22, r1
    118a:	71 05       	cpc	r23, r1
    118c:	08 95       	ret
    118e:	9b 01       	movw	r18, r22
    1190:	ac 01       	movw	r20, r24
    1192:	0a 2e       	mov	r0, r26
    1194:	06 94       	lsr	r0
    1196:	57 95       	ror	r21
    1198:	47 95       	ror	r20
    119a:	37 95       	ror	r19
    119c:	27 95       	ror	r18
    119e:	ba 95       	dec	r27
    11a0:	c9 f7       	brne	.-14     	; 0x1194 <__ultoa_invert+0xa2>
    11a2:	62 0f       	add	r22, r18
    11a4:	73 1f       	adc	r23, r19
    11a6:	84 1f       	adc	r24, r20
    11a8:	95 1f       	adc	r25, r21
    11aa:	a0 1d       	adc	r26, r0
    11ac:	08 95       	ret

000011ae <__prologue_saves__>:
    11ae:	2f 92       	push	r2
    11b0:	3f 92       	push	r3
    11b2:	4f 92       	push	r4
    11b4:	5f 92       	push	r5
    11b6:	6f 92       	push	r6
    11b8:	7f 92       	push	r7
    11ba:	8f 92       	push	r8
    11bc:	9f 92       	push	r9
    11be:	af 92       	push	r10
    11c0:	bf 92       	push	r11
    11c2:	cf 92       	push	r12
    11c4:	df 92       	push	r13
    11c6:	ef 92       	push	r14
    11c8:	ff 92       	push	r15
    11ca:	0f 93       	push	r16
    11cc:	1f 93       	push	r17
    11ce:	cf 93       	push	r28
    11d0:	df 93       	push	r29
    11d2:	cd b7       	in	r28, 0x3d	; 61
    11d4:	de b7       	in	r29, 0x3e	; 62
    11d6:	ca 1b       	sub	r28, r26
    11d8:	db 0b       	sbc	r29, r27
    11da:	0f b6       	in	r0, 0x3f	; 63
    11dc:	f8 94       	cli
    11de:	de bf       	out	0x3e, r29	; 62
    11e0:	0f be       	out	0x3f, r0	; 63
    11e2:	cd bf       	out	0x3d, r28	; 61
    11e4:	09 94       	ijmp

000011e6 <__epilogue_restores__>:
    11e6:	2a 88       	ldd	r2, Y+18	; 0x12
    11e8:	39 88       	ldd	r3, Y+17	; 0x11
    11ea:	48 88       	ldd	r4, Y+16	; 0x10
    11ec:	5f 84       	ldd	r5, Y+15	; 0x0f
    11ee:	6e 84       	ldd	r6, Y+14	; 0x0e
    11f0:	7d 84       	ldd	r7, Y+13	; 0x0d
    11f2:	8c 84       	ldd	r8, Y+12	; 0x0c
    11f4:	9b 84       	ldd	r9, Y+11	; 0x0b
    11f6:	aa 84       	ldd	r10, Y+10	; 0x0a
    11f8:	b9 84       	ldd	r11, Y+9	; 0x09
    11fa:	c8 84       	ldd	r12, Y+8	; 0x08
    11fc:	df 80       	ldd	r13, Y+7	; 0x07
    11fe:	ee 80       	ldd	r14, Y+6	; 0x06
    1200:	fd 80       	ldd	r15, Y+5	; 0x05
    1202:	0c 81       	ldd	r16, Y+4	; 0x04
    1204:	1b 81       	ldd	r17, Y+3	; 0x03
    1206:	aa 81       	ldd	r26, Y+2	; 0x02
    1208:	b9 81       	ldd	r27, Y+1	; 0x01
    120a:	ce 0f       	add	r28, r30
    120c:	d1 1d       	adc	r29, r1
    120e:	0f b6       	in	r0, 0x3f	; 63
    1210:	f8 94       	cli
    1212:	de bf       	out	0x3e, r29	; 62
    1214:	0f be       	out	0x3f, r0	; 63
    1216:	cd bf       	out	0x3d, r28	; 61
    1218:	ed 01       	movw	r28, r26
    121a:	08 95       	ret

0000121c <_exit>:
    121c:	f8 94       	cli

0000121e <__stop_program>:
    121e:	ff cf       	rjmp	.-2      	; 0x121e <__stop_program>
